Component: ARM Compiler 5.05 update 2 (build 169) Tool: armlink [4d0f33]

==============================================================================

Section Cross References

    main.o(i.advertising_init) refers to rt_memclr.o(.text) for __aeabi_memclr4
    main.o(i.advertising_init) refers to ble_advertising.o(i.ble_advertising_init) for ble_advertising_init
    main.o(i.advertising_init) refers to app_error.o(i.app_error_handler) for app_error_handler
    main.o(i.advertising_init) refers to main.o(.data) for m_adv_uuids
    main.o(i.advertising_init) refers to main.o(i.on_adv_evt) for on_adv_evt
    main.o(i.assert_nrf_callback) refers to app_error.o(i.app_error_handler) for app_error_handler
    main.o(i.ble_evt_dispatch) refers to ble_conn_params.o(i.ble_conn_params_on_ble_evt) for ble_conn_params_on_ble_evt
    main.o(i.ble_evt_dispatch) refers to ble_nus.o(i.ble_nus_on_ble_evt) for ble_nus_on_ble_evt
    main.o(i.ble_evt_dispatch) refers to main.o(i.on_ble_evt) for on_ble_evt
    main.o(i.ble_evt_dispatch) refers to ble_advertising.o(i.ble_advertising_on_ble_evt) for ble_advertising_on_ble_evt
    main.o(i.ble_evt_dispatch) refers to main.o(.bss) for m_nus
    main.o(i.ble_stack_init) refers to softdevice_handler.o(i.softdevice_handler_init) for softdevice_handler_init
    main.o(i.ble_stack_init) refers to app_error.o(i.app_error_handler) for app_error_handler
    main.o(i.ble_stack_init) refers to softdevice_handler.o(i.softdevice_ble_evt_handler_set) for softdevice_ble_evt_handler_set
    main.o(i.ble_stack_init) refers to softdevice_handler.o(i.softdevice_sys_evt_handler_set) for softdevice_sys_evt_handler_set
    main.o(i.ble_stack_init) refers to main.o(.bss) for EVT_BUFFER
    main.o(i.ble_stack_init) refers to main.o(i.ble_evt_dispatch) for ble_evt_dispatch
    main.o(i.ble_stack_init) refers to main.o(i.sys_evt_dispatch) for sys_evt_dispatch
    main.o(i.conn_params_error_handler) refers to app_error.o(i.app_error_handler) for app_error_handler
    main.o(i.conn_params_init) refers to rt_memclr.o(.text) for __aeabi_memclr4
    main.o(i.conn_params_init) refers to ble_conn_params.o(i.ble_conn_params_init) for ble_conn_params_init
    main.o(i.conn_params_init) refers to app_error.o(i.app_error_handler) for app_error_handler
    main.o(i.conn_params_init) refers to main.o(i.on_conn_params_evt) for on_conn_params_evt
    main.o(i.conn_params_init) refers to main.o(i.conn_params_error_handler) for conn_params_error_handler
    main.o(i.gap_params_init) refers to app_error.o(i.app_error_handler) for app_error_handler
    main.o(i.gpio_init) refers to main.o(i.nrf_gpio_cfg_output) for nrf_gpio_cfg_output
    main.o(i.gpio_init) refers to main.o(i.nrf_gpio_cfg_input) for nrf_gpio_cfg_input
    main.o(i.main) refers to main.o(i.timer_init) for timer_init
    main.o(i.main) refers to main.o(i.gpio_init) for gpio_init
    main.o(i.main) refers to ofo_uart.o(i.uart_init) for uart_init
    main.o(i.main) refers to ofo_adc.o(i.adc_config) for adc_config
    main.o(i.main) refers to ofo_buzz.o(i.Buzz_init) for Buzz_init
    main.o(i.main) refers to ofo_flash.o(i.flash_init) for flash_init
    main.o(i.main) refers to ofo_wdt.o(i.wdt_init) for wdt_init
    main.o(i.main) refers to ofo_led.o(i.LED_flash_init) for LED_flash_init
    main.o(i.main) refers to ofo_key_unlock.o(i.key_unlock_init) for key_unlock_init
    main.o(i.main) refers to ofo_lock.o(i.lock_set_init) for lock_set_init
    main.o(i.main) refers to main.o(i.ble_stack_init) for ble_stack_init
    main.o(i.main) refers to main.o(i.gap_params_init) for gap_params_init
    main.o(i.main) refers to main.o(i.services_init) for services_init
    main.o(i.main) refers to main.o(i.advertising_init) for advertising_init
    main.o(i.main) refers to main.o(i.conn_params_init) for conn_params_init
    main.o(i.main) refers to ble_advertising.o(i.ble_advertising_start) for ble_advertising_start
    main.o(i.main) refers to app_error.o(i.app_error_handler) for app_error_handler
    main.o(i.main) refers to main.o(i.power_manage) for power_manage
    main.o(i.nrf_gpio_cfg_input) refers to main.o(i.nrf_gpio_cfg) for nrf_gpio_cfg
    main.o(i.nrf_gpio_cfg_output) refers to main.o(i.nrf_gpio_cfg) for nrf_gpio_cfg
    main.o(i.nus_data_handler) refers to _printf_percent.o(.ARM.Collect$$_printf_percent$$00000000) for _printf_percent
    main.o(i.nus_data_handler) refers to _printf_x.o(.ARM.Collect$$_printf_percent$$0000000C) for _printf_x
    main.o(i.nus_data_handler) refers to _printf_hex_int.o(.text) for _printf_longlong_hex
    main.o(i.nus_data_handler) refers to noretval__2printf.o(.text) for __2printf
    main.o(i.on_adv_evt) refers to main.o(i.sleep_mode_enter) for sleep_mode_enter
    main.o(i.on_ble_evt) refers to app_error.o(i.app_error_handler) for app_error_handler
    main.o(i.on_ble_evt) refers to main.o(.data) for m_conn_handle
    main.o(i.on_conn_params_evt) refers to app_error.o(i.app_error_handler) for app_error_handler
    main.o(i.on_conn_params_evt) refers to main.o(.data) for m_conn_handle
    main.o(i.power_manage) refers to app_error.o(i.app_error_handler) for app_error_handler
    main.o(i.services_init) refers to ble_nus.o(i.ble_nus_init) for ble_nus_init
    main.o(i.services_init) refers to app_error.o(i.app_error_handler) for app_error_handler
    main.o(i.services_init) refers to main.o(i.nus_data_handler) for nus_data_handler
    main.o(i.services_init) refers to main.o(.bss) for m_nus
    main.o(i.sleep_mode_enter) refers to app_error.o(i.app_error_handler) for app_error_handler
    main.o(i.sys_evt_dispatch) refers to pstorage.o(i.pstorage_sys_event_handler) for pstorage_sys_event_handler
    main.o(i.timer_init) refers to app_timer.o(i.app_timer_init) for app_timer_init
    main.o(i.timer_init) refers to app_error.o(i.app_error_handler) for app_error_handler
    main.o(i.timer_init) refers to main.o(.bss) for APP_TIMER_BUF
    ofo_led.o(i.LED_flash) refers to app_timer.o(i.app_timer_start) for app_timer_start
    ofo_led.o(i.LED_flash) refers to ofo_led.o(.data) for LED_flash_loop_times
    ofo_led.o(i.LED_flash) refers to ofo_led.o(.constdata) for LED_timer_id
    ofo_led.o(i.LED_flash_init) refers to app_timer.o(i.app_timer_create) for app_timer_create
    ofo_led.o(i.LED_flash_init) refers to app_error.o(i.app_error_handler) for app_error_handler
    ofo_led.o(i.LED_flash_init) refers to ofo_led.o(i.LED_timer_handler) for LED_timer_handler
    ofo_led.o(i.LED_flash_init) refers to ofo_led.o(.constdata) for LED_timer_id
    ofo_led.o(i.LED_timer_handler) refers to ofo_led.o(i.__ARM_common_switch8) for __ARM_common_switch8
    ofo_led.o(i.LED_timer_handler) refers to ofo_led.o(i.all_led_flash_control) for all_led_flash_control
    ofo_led.o(i.LED_timer_handler) refers to ofo_led.o(i.single_led_control) for single_led_control
    ofo_led.o(i.LED_timer_handler) refers to ofo_led.o(i.led_action_stop) for led_action_stop
    ofo_led.o(i.LED_timer_handler) refers to ofo_led.o(.data) for LED_flash_types
    ofo_led.o(i.LED_timer_handler) refers to ofo_led.o(.constdata) for Green_LED_flash
    ofo_led.o(i.all_led_flash_control) refers to ofo_led.o(i.single_led_control) for single_led_control
    ofo_led.o(i.led_action_stop) refers to app_timer.o(i.app_timer_stop) for app_timer_stop
    ofo_led.o(i.led_action_stop) refers to ofo_led.o(i.all_led_flash_control) for all_led_flash_control
    ofo_led.o(i.led_action_stop) refers to ofo_led.o(.constdata) for LED_timer_id
    ofo_led.o(i.led_action_stop) refers to ofo_led.o(.data) for LED_flash_loop_times
    ofo_led.o(i.single_led_control) refers to ofo_led.o(.constdata) for led_pin_array
    ofo_led.o(.constdata) refers to ofo_led.o(.bss) for LED_timer_id_data
    ofo_adc.o(i.ADC_IRQHandler) refers to dflti.o(.text) for __aeabi_i2d
    ofo_adc.o(i.ADC_IRQHandler) refers to dmul.o(.text) for __aeabi_dmul
    ofo_adc.o(i.ADC_IRQHandler) refers to dfixi.o(.text) for __aeabi_d2iz
    ofo_adc.o(i.ADC_IRQHandler) refers to ofo_adc.o(.data) for adc_sample
    ofo_adc.o(i.adc_config) refers to nrf_adc.o(i.nrf_adc_configure) for nrf_adc_configure
    ofo_adc.o(i.adc_config) refers to ofo_adc.o(i.NVIC_SetPriority) for NVIC_SetPriority
    ofo_adc.o(i.adc_config) refers to ofo_adc.o(.constdata) for .constdata
    ofo_wdt.o(i.wdt_init) refers to nrf_drv_wdt.o(i.nrf_drv_wdt_init) for nrf_drv_wdt_init
    ofo_wdt.o(i.wdt_init) refers to app_error.o(i.app_error_handler) for app_error_handler
    ofo_wdt.o(i.wdt_init) refers to nrf_drv_wdt.o(i.nrf_drv_wdt_channel_alloc) for nrf_drv_wdt_channel_alloc
    ofo_wdt.o(i.wdt_init) refers to ofo_wdt.o(i.wdt_event_handler) for wdt_event_handler
    ofo_wdt.o(i.wdt_init) refers to ofo_wdt.o(.data) for m_channel_id
    ofo_uart.o(i.uart_event_handle) refers to app_uart_fifo.o(i.app_uart_get) for app_uart_get
    ofo_uart.o(i.uart_event_handle) refers to ofo_buzz.o(i.KeyCVoice) for KeyCVoice
    ofo_uart.o(i.uart_event_handle) refers to ofo_buzz.o(i.KeyVoice) for KeyVoice
    ofo_uart.o(i.uart_event_handle) refers to ofo_buzz.o(i.VoicePasswordOK) for VoicePasswordOK
    ofo_uart.o(i.uart_event_handle) refers to ofo_buzz.o(i.VoicePasswordErr) for VoicePasswordErr
    ofo_uart.o(i.uart_event_handle) refers to app_error.o(i.app_error_handler) for app_error_handler
    ofo_uart.o(i.uart_event_handle) refers to ofo_uart.o(.data) for index
    ofo_uart.o(i.uart_event_handle) refers to ofo_uart.o(.bss) for data_array
    ofo_uart.o(i.uart_init) refers to app_uart_fifo.o(i.app_uart_close) for app_uart_close
    ofo_uart.o(i.uart_init) refers to app_uart_fifo.o(i.app_uart_flush) for app_uart_flush
    ofo_uart.o(i.uart_init) refers to nrf_delay.o(i.nrf_delay_ms) for nrf_delay_ms
    ofo_uart.o(i.uart_init) refers to app_uart_fifo.o(i.app_uart_init) for app_uart_init
    ofo_uart.o(i.uart_init) refers to app_error.o(i.app_error_handler) for app_error_handler
    ofo_uart.o(i.uart_init) refers to ofo_uart.o(.data) for UartSt
    ofo_uart.o(i.uart_init) refers to ofo_uart.o(.constdata) for .constdata
    ofo_uart.o(i.uart_init) refers to ofo_uart.o(.bss) for rx_buf
    ofo_uart.o(i.uart_init) refers to ofo_uart.o(i.uart_event_handle) for uart_event_handle
    ofo_uart.o(i.uart_send) refers to app_uart_fifo.o(i.app_uart_put) for app_uart_put
    ofo_flash.o(i.Readparm) refers to ofo_flash.o(i.load_flash) for load_flash
    ofo_flash.o(i.Readparm) refers to ofo_flash.o(.data) for load_flag
    ofo_flash.o(i.WriteParm) refers to ofo_flash.o(i.update_flash) for update_flash
    ofo_flash.o(i.WriteParm) refers to ofo_flash.o(.data) for update_flag
    ofo_flash.o(i.clear_flash) refers to pstorage.o(i.pstorage_clear) for pstorage_clear
    ofo_flash.o(i.clear_flash) refers to app_error.o(i.app_error_handler) for app_error_handler
    ofo_flash.o(i.clear_flash) refers to ofo_flash.o(.data) for base_flash_handle
    ofo_flash.o(i.flash_init) refers to pstorage.o(i.pstorage_init) for pstorage_init
    ofo_flash.o(i.flash_init) refers to ofo_flash.o(i.flash_regeist) for flash_regeist
    ofo_flash.o(i.flash_pstorage_cb_handler) refers to ofo_flash.o(.data) for store_flag
    ofo_flash.o(i.flash_regeist) refers to pstorage.o(i.pstorage_register) for pstorage_register
    ofo_flash.o(i.flash_regeist) refers to ofo_flash.o(i.flash_pstorage_cb_handler) for flash_pstorage_cb_handler
    ofo_flash.o(i.flash_regeist) refers to ofo_flash.o(.data) for base_flash_handle
    ofo_flash.o(i.flash_test) refers to _printf_percent.o(.ARM.Collect$$_printf_percent$$00000000) for _printf_percent
    ofo_flash.o(i.flash_test) refers to _printf_s.o(.ARM.Collect$$_printf_percent$$00000014) for _printf_s
    ofo_flash.o(i.flash_test) refers to _printf_str.o(.text) for _printf_str
    ofo_flash.o(i.flash_test) refers to ofo_flash.o(i.WriteParm) for WriteParm
    ofo_flash.o(i.flash_test) refers to ofo_flash.o(i.Readparm) for Readparm
    ofo_flash.o(i.flash_test) refers to noretval__2printf.o(.text) for __2printf
    ofo_flash.o(i.load_flash) refers to pstorage.o(i.pstorage_block_identifier_get) for pstorage_block_identifier_get
    ofo_flash.o(i.load_flash) refers to app_error.o(i.app_error_handler) for app_error_handler
    ofo_flash.o(i.load_flash) refers to pstorage.o(i.pstorage_load) for pstorage_load
    ofo_flash.o(i.load_flash) refers to ofo_flash.o(.data) for m_flash_handle
    ofo_flash.o(i.storage_flash) refers to pstorage.o(i.pstorage_block_identifier_get) for pstorage_block_identifier_get
    ofo_flash.o(i.storage_flash) refers to app_error.o(i.app_error_handler) for app_error_handler
    ofo_flash.o(i.storage_flash) refers to pstorage.o(i.pstorage_store) for pstorage_store
    ofo_flash.o(i.storage_flash) refers to ofo_flash.o(.data) for m_flash_handle
    ofo_flash.o(i.update_flash) refers to pstorage.o(i.pstorage_block_identifier_get) for pstorage_block_identifier_get
    ofo_flash.o(i.update_flash) refers to app_error.o(i.app_error_handler) for app_error_handler
    ofo_flash.o(i.update_flash) refers to pstorage.o(i.pstorage_update) for pstorage_update
    ofo_flash.o(i.update_flash) refers to ofo_flash.o(.data) for m_flash_handle
    ofo_buzz.o(i.Buzz_init) refers to ofo_buzz.o(i.nrf_gpio_pin_clear) for nrf_gpio_pin_clear
    ofo_buzz.o(i.Buzz_init) refers to app_timer.o(i.app_timer_create) for app_timer_create
    ofo_buzz.o(i.Buzz_init) refers to app_error.o(i.app_error_handler) for app_error_handler
    ofo_buzz.o(i.Buzz_init) refers to ofo_buzz.o(i.KeyVoice) for KeyVoice
    ofo_buzz.o(i.Buzz_init) refers to ofo_buzz.o(i.buzz_timer_handler) for buzz_timer_handler
    ofo_buzz.o(i.Buzz_init) refers to ofo_buzz.o(.constdata) for Buzz_timer_id
    ofo_buzz.o(i.KeyCVoice) refers to ofo_buzz.o(i.PlayVoice) for PlayVoice
    ofo_buzz.o(i.KeyCVoice) refers to ofo_buzz.o(.constdata) for KEYC_TONE
    ofo_buzz.o(i.KeyVoice) refers to ofo_buzz.o(i.PlayVoice) for PlayVoice
    ofo_buzz.o(i.KeyVoice) refers to ofo_buzz.o(.constdata) for KEY_TONE
    ofo_buzz.o(i.PlayVoice) refers to ofo_buzz.o(i.nrf_gpio_pin_set) for nrf_gpio_pin_set
    ofo_buzz.o(i.PlayVoice) refers to aeabi_sdiv.o(.text) for __aeabi_idivmod
    ofo_buzz.o(i.PlayVoice) refers to app_timer.o(i.app_timer_start) for app_timer_start
    ofo_buzz.o(i.PlayVoice) refers to app_error.o(i.app_error_handler) for app_error_handler
    ofo_buzz.o(i.PlayVoice) refers to ofo_buzz.o(.data) for Tone
    ofo_buzz.o(i.PlayVoice) refers to ofo_buzz.o(.constdata) for Buzz_timer_id
    ofo_buzz.o(i.VoiceLockClose) refers to ofo_buzz.o(i.PlayVoice) for PlayVoice
    ofo_buzz.o(i.VoiceLockClose) refers to ofo_buzz.o(.constdata) for LockClose_TONE
    ofo_buzz.o(i.VoicePasswordErr) refers to ofo_buzz.o(i.PlayVoice) for PlayVoice
    ofo_buzz.o(i.VoicePasswordErr) refers to ofo_buzz.o(.constdata) for PasswordERR_TONE
    ofo_buzz.o(i.VoicePasswordOK) refers to ofo_buzz.o(i.PlayVoice) for PlayVoice
    ofo_buzz.o(i.VoicePasswordOK) refers to ofo_buzz.o(.constdata) for PasswordOK_TONE
    ofo_buzz.o(i.buzz_timer_handler) refers to app_timer.o(i.app_timer_stop) for app_timer_stop
    ofo_buzz.o(i.buzz_timer_handler) refers to ofo_buzz.o(i.nrf_gpio_pin_clear) for nrf_gpio_pin_clear
    ofo_buzz.o(i.buzz_timer_handler) refers to ofo_buzz.o(i.nrf_gpio_pin_set) for nrf_gpio_pin_set
    ofo_buzz.o(i.buzz_timer_handler) refers to ofo_buzz.o(.data) for buzz_index
    ofo_buzz.o(i.buzz_timer_handler) refers to ofo_buzz.o(.constdata) for Buzz_timer_id
    ofo_buzz.o(.constdata) refers to ofo_buzz.o(.bss) for Buzz_timer_id_data
    ofo_date.o(i.AppRtcInit) refers to app_timer.o(i.app_timer_create) for app_timer_create
    ofo_date.o(i.AppRtcInit) refers to app_timer.o(i.app_timer_start) for app_timer_start
    ofo_date.o(i.AppRtcInit) refers to ofo_date.o(i.SetTimeStamp) for SetTimeStamp
    ofo_date.o(i.AppRtcInit) refers to ofo_date.o(i.date_timer_handler) for date_timer_handler
    ofo_date.o(i.AppRtcInit) refers to ofo_date.o(.constdata) for RTC_timer_id
    ofo_date.o(i.IfTestTime) refers to ofo_date.o(.data) for ret
    ofo_date.o(i.SecondTimeDeal) refers to ofo_date.o(.data) for TimeStamp
    ofo_date.o(i.SetTimeStamp) refers to ofo_date.o(.data) for TimeStamp
    ofo_date.o(i.date_timer_handler) refers to ofo_date.o(.data) for TimeStamp
    ofo_date.o(.constdata) refers to ofo_date.o(.bss) for RTC_timer_id_data
    ofo_lock.o(i.GetLockPos) refers to ofo_lock.o(i.nrf_gpio_pin_read) for nrf_gpio_pin_read
    ofo_lock.o(i.GetLockSt) refers to ofo_lock.o(i.nrf_gpio_pin_read) for nrf_gpio_pin_read
    ofo_lock.o(i.OpenLockTime) refers to app_timer.o(i.app_timer_start) for app_timer_start
    ofo_lock.o(i.OpenLockTime) refers to app_error.o(i.app_error_handler) for app_error_handler
    ofo_lock.o(i.OpenLockTime) refers to ofo_lock.o(.constdata) for Lock_timer_id
    ofo_lock.o(i.lock_set_init) refers to ofo_lock.o(i.nrf_gpio_pin_clear) for nrf_gpio_pin_clear
    ofo_lock.o(i.lock_set_init) refers to app_timer.o(i.app_timer_create) for app_timer_create
    ofo_lock.o(i.lock_set_init) refers to nrf_drv_gpiote.o(i.nrf_drv_gpiote_in_init) for nrf_drv_gpiote_in_init
    ofo_lock.o(i.lock_set_init) refers to app_error.o(i.app_error_handler) for app_error_handler
    ofo_lock.o(i.lock_set_init) refers to ofo_lock.o(i.lock_timer_handler) for lock_timer_handler
    ofo_lock.o(i.lock_set_init) refers to ofo_lock.o(.constdata) for Lock_timer_id
    ofo_lock.o(i.lock_set_init) refers to ofo_lock.o(i.switch_event_handler) for switch_event_handler
    ofo_lock.o(i.lock_timer_handler) refers to nrf_drv_gpiote.o(i.nrf_drv_gpiote_in_event_enable) for nrf_drv_gpiote_in_event_enable
    ofo_lock.o(i.lock_timer_handler) refers to ofo_lock.o(i.nrf_gpio_pin_read) for nrf_gpio_pin_read
    ofo_lock.o(i.lock_timer_handler) refers to app_timer.o(i.app_timer_stop) for app_timer_stop
    ofo_lock.o(i.lock_timer_handler) refers to ofo_lock.o(i.nrf_gpio_pin_clear) for nrf_gpio_pin_clear
    ofo_lock.o(i.lock_timer_handler) refers to nrf_drv_gpiote.o(i.nrf_drv_gpiote_in_event_disable) for nrf_drv_gpiote_in_event_disable
    ofo_lock.o(i.lock_timer_handler) refers to ofo_lock.o(.data) for LockTimeSt
    ofo_lock.o(i.lock_timer_handler) refers to ofo_lock.o(.constdata) for Lock_timer_id
    ofo_lock.o(i.switch_event_handler) refers to noretval__2printf.o(.text) for __2printf
    ofo_lock.o(i.switch_event_handler) refers to app_timer.o(i.app_timer_stop) for app_timer_stop
    ofo_lock.o(i.switch_event_handler) refers to ofo_lock.o(i.nrf_gpio_pin_clear) for nrf_gpio_pin_clear
    ofo_lock.o(i.switch_event_handler) refers to nrf_drv_gpiote.o(i.nrf_drv_gpiote_in_event_disable) for nrf_drv_gpiote_in_event_disable
    ofo_lock.o(i.switch_event_handler) refers to ofo_factory_test.o(.data) for lock1_test
    ofo_lock.o(i.switch_event_handler) refers to ofo_lock.o(.constdata) for Lock_timer_id
    ofo_lock.o(i.switch_event_handler) refers to ofo_lock.o(.data) for LockTimeSt
    ofo_lock.o(.constdata) refers to ofo_lock.o(.bss) for Lock_timer_id_data
    ofo_lis3dh.o(i.BikeState) refers to ofo_lis3dh.o(i.BikeRunStopDec) for BikeRunStopDec
    ofo_lis3dh.o(i.BikeState) refers to ofo_lis3dh.o(i.BikeTiltDec) for BikeTiltDec
    ofo_lis3dh.o(i.BikeState) refers to ofo_lis3dh.o(.bss) for LIS3DH_XYZRaw
    ofo_lis3dh.o(i.LIS3DH_FIFOModeEnable) refers to ofo_lis3dh.o(i.LIS3DH_ReadReg) for LIS3DH_ReadReg
    ofo_lis3dh.o(i.LIS3DH_FIFOModeEnable) refers to ofo_lis3dh.o(i.LIS3DH_WriteReg) for LIS3DH_WriteReg
    ofo_lis3dh.o(i.LIS3DH_Get6DPosition) refers to ofo_lis3dh.o(i.LIS3DH_ReadReg) for LIS3DH_ReadReg
    ofo_lis3dh.o(i.LIS3DH_GetAccAxesRaw) refers to ofo_lis3dh.o(i.LIS3DH_ReadReg) for LIS3DH_ReadReg
    ofo_lis3dh.o(i.LIS3DH_GetAccXYZRaw) refers to ofo_lis3dh.o(i.LIS3DH_GetAccAxesRaw) for LIS3DH_GetAccAxesRaw
    ofo_lis3dh.o(i.LIS3DH_GetAccXYZRaw) refers to nrf_delay.o(i.nrf_delay_ms) for nrf_delay_ms
    ofo_lis3dh.o(i.LIS3DH_GetAuxRaw) refers to ofo_lis3dh.o(i.LIS3DH_ReadReg) for LIS3DH_ReadReg
    ofo_lis3dh.o(i.LIS3DH_GetClickResponse) refers to ofo_lis3dh.o(i.LIS3DH_ReadReg) for LIS3DH_ReadReg
    ofo_lis3dh.o(i.LIS3DH_GetFifoSourceBit) refers to ofo_lis3dh.o(i.LIS3DH_ReadReg) for LIS3DH_ReadReg
    ofo_lis3dh.o(i.LIS3DH_GetFifoSourceFSS) refers to ofo_lis3dh.o(i.LIS3DH_ReadReg) for LIS3DH_ReadReg
    ofo_lis3dh.o(i.LIS3DH_GetFifoSourceReg) refers to ofo_lis3dh.o(i.LIS3DH_ReadReg) for LIS3DH_ReadReg
    ofo_lis3dh.o(i.LIS3DH_GetInt1Src) refers to ofo_lis3dh.o(i.LIS3DH_ReadReg) for LIS3DH_ReadReg
    ofo_lis3dh.o(i.LIS3DH_GetInt1SrcBit) refers to ofo_lis3dh.o(i.LIS3DH_ReadReg) for LIS3DH_ReadReg
    ofo_lis3dh.o(i.LIS3DH_GetStatusAUX) refers to ofo_lis3dh.o(i.LIS3DH_ReadReg) for LIS3DH_ReadReg
    ofo_lis3dh.o(i.LIS3DH_GetStatusAUXBit) refers to ofo_lis3dh.o(i.LIS3DH_ReadReg) for LIS3DH_ReadReg
    ofo_lis3dh.o(i.LIS3DH_GetStatusBit) refers to ofo_lis3dh.o(i.LIS3DH_ReadReg) for LIS3DH_ReadReg
    ofo_lis3dh.o(i.LIS3DH_GetStatusReg) refers to ofo_lis3dh.o(i.LIS3DH_ReadReg) for LIS3DH_ReadReg
    ofo_lis3dh.o(i.LIS3DH_GetTempRaw) refers to ofo_lis3dh.o(i.LIS3DH_ReadReg) for LIS3DH_ReadReg
    ofo_lis3dh.o(i.LIS3DH_GetWHO_AM_I) refers to ofo_lis3dh.o(i.LIS3DH_ReadReg) for LIS3DH_ReadReg
    ofo_lis3dh.o(i.LIS3DH_HPFAOI1Enable) refers to ofo_lis3dh.o(i.LIS3DH_ReadReg) for LIS3DH_ReadReg
    ofo_lis3dh.o(i.LIS3DH_HPFAOI1Enable) refers to ofo_lis3dh.o(i.LIS3DH_WriteReg) for LIS3DH_WriteReg
    ofo_lis3dh.o(i.LIS3DH_HPFAOI2Enable) refers to ofo_lis3dh.o(i.LIS3DH_ReadReg) for LIS3DH_ReadReg
    ofo_lis3dh.o(i.LIS3DH_HPFAOI2Enable) refers to ofo_lis3dh.o(i.LIS3DH_WriteReg) for LIS3DH_WriteReg
    ofo_lis3dh.o(i.LIS3DH_HPFClickEnable) refers to ofo_lis3dh.o(i.LIS3DH_ReadReg) for LIS3DH_ReadReg
    ofo_lis3dh.o(i.LIS3DH_HPFClickEnable) refers to ofo_lis3dh.o(i.LIS3DH_WriteReg) for LIS3DH_WriteReg
    ofo_lis3dh.o(i.LIS3DH_Int1LatchEnable) refers to ofo_lis3dh.o(i.LIS3DH_ReadReg) for LIS3DH_ReadReg
    ofo_lis3dh.o(i.LIS3DH_Int1LatchEnable) refers to ofo_lis3dh.o(i.LIS3DH_WriteReg) for LIS3DH_WriteReg
    ofo_lis3dh.o(i.LIS3DH_ReadReg) refers to twi_hw_master.o(i.my_twi_read) for my_twi_read
    ofo_lis3dh.o(i.LIS3DH_ResetInt1Latch) refers to ofo_lis3dh.o(i.LIS3DH_ReadReg) for LIS3DH_ReadReg
    ofo_lis3dh.o(i.LIS3DH_SetADCAux) refers to ofo_lis3dh.o(i.LIS3DH_ReadReg) for LIS3DH_ReadReg
    ofo_lis3dh.o(i.LIS3DH_SetADCAux) refers to ofo_lis3dh.o(i.LIS3DH_WriteReg) for LIS3DH_WriteReg
    ofo_lis3dh.o(i.LIS3DH_SetAxis) refers to ofo_lis3dh.o(i.LIS3DH_ReadReg) for LIS3DH_ReadReg
    ofo_lis3dh.o(i.LIS3DH_SetAxis) refers to ofo_lis3dh.o(i.LIS3DH_WriteReg) for LIS3DH_WriteReg
    ofo_lis3dh.o(i.LIS3DH_SetBDU) refers to ofo_lis3dh.o(i.LIS3DH_ReadReg) for LIS3DH_ReadReg
    ofo_lis3dh.o(i.LIS3DH_SetBDU) refers to ofo_lis3dh.o(i.LIS3DH_WriteReg) for LIS3DH_WriteReg
    ofo_lis3dh.o(i.LIS3DH_SetBLE) refers to ofo_lis3dh.o(i.LIS3DH_ReadReg) for LIS3DH_ReadReg
    ofo_lis3dh.o(i.LIS3DH_SetBLE) refers to ofo_lis3dh.o(i.LIS3DH_WriteReg) for LIS3DH_WriteReg
    ofo_lis3dh.o(i.LIS3DH_SetClickCFG) refers to ofo_lis3dh.o(i.LIS3DH_ReadReg) for LIS3DH_ReadReg
    ofo_lis3dh.o(i.LIS3DH_SetClickCFG) refers to ofo_lis3dh.o(i.LIS3DH_WriteReg) for LIS3DH_WriteReg
    ofo_lis3dh.o(i.LIS3DH_SetClickLATENCY) refers to ofo_lis3dh.o(i.LIS3DH_WriteReg) for LIS3DH_WriteReg
    ofo_lis3dh.o(i.LIS3DH_SetClickLIMIT) refers to ofo_lis3dh.o(i.LIS3DH_WriteReg) for LIS3DH_WriteReg
    ofo_lis3dh.o(i.LIS3DH_SetClickTHS) refers to ofo_lis3dh.o(i.LIS3DH_WriteReg) for LIS3DH_WriteReg
    ofo_lis3dh.o(i.LIS3DH_SetClickWINDOW) refers to ofo_lis3dh.o(i.LIS3DH_WriteReg) for LIS3DH_WriteReg
    ofo_lis3dh.o(i.LIS3DH_SetFilterDataSel) refers to ofo_lis3dh.o(i.LIS3DH_ReadReg) for LIS3DH_ReadReg
    ofo_lis3dh.o(i.LIS3DH_SetFilterDataSel) refers to ofo_lis3dh.o(i.LIS3DH_WriteReg) for LIS3DH_WriteReg
    ofo_lis3dh.o(i.LIS3DH_SetFullScale) refers to ofo_lis3dh.o(i.LIS3DH_ReadReg) for LIS3DH_ReadReg
    ofo_lis3dh.o(i.LIS3DH_SetFullScale) refers to ofo_lis3dh.o(i.LIS3DH_WriteReg) for LIS3DH_WriteReg
    ofo_lis3dh.o(i.LIS3DH_SetHPFCutOFF) refers to ofo_lis3dh.o(i.LIS3DH_ReadReg) for LIS3DH_ReadReg
    ofo_lis3dh.o(i.LIS3DH_SetHPFCutOFF) refers to ofo_lis3dh.o(i.LIS3DH_WriteReg) for LIS3DH_WriteReg
    ofo_lis3dh.o(i.LIS3DH_SetHPFMode) refers to ofo_lis3dh.o(i.LIS3DH_ReadReg) for LIS3DH_ReadReg
    ofo_lis3dh.o(i.LIS3DH_SetHPFMode) refers to ofo_lis3dh.o(i.LIS3DH_WriteReg) for LIS3DH_WriteReg
    ofo_lis3dh.o(i.LIS3DH_SetInt1Duration) refers to ofo_lis3dh.o(i.LIS3DH_WriteReg) for LIS3DH_WriteReg
    ofo_lis3dh.o(i.LIS3DH_SetInt1Pin) refers to ofo_lis3dh.o(i.LIS3DH_ReadReg) for LIS3DH_ReadReg
    ofo_lis3dh.o(i.LIS3DH_SetInt1Pin) refers to ofo_lis3dh.o(i.LIS3DH_WriteReg) for LIS3DH_WriteReg
    ofo_lis3dh.o(i.LIS3DH_SetInt1Threshold) refers to ofo_lis3dh.o(i.LIS3DH_WriteReg) for LIS3DH_WriteReg
    ofo_lis3dh.o(i.LIS3DH_SetInt2Pin) refers to ofo_lis3dh.o(i.LIS3DH_ReadReg) for LIS3DH_ReadReg
    ofo_lis3dh.o(i.LIS3DH_SetInt2Pin) refers to ofo_lis3dh.o(i.LIS3DH_WriteReg) for LIS3DH_WriteReg
    ofo_lis3dh.o(i.LIS3DH_SetInt6D4DConfiguration) refers to ofo_lis3dh.o(i.LIS3DH_ReadReg) for LIS3DH_ReadReg
    ofo_lis3dh.o(i.LIS3DH_SetInt6D4DConfiguration) refers to ofo_lis3dh.o(i.LIS3DH_WriteReg) for LIS3DH_WriteReg
    ofo_lis3dh.o(i.LIS3DH_SetIntConfiguration) refers to ofo_lis3dh.o(i.LIS3DH_ReadReg) for LIS3DH_ReadReg
    ofo_lis3dh.o(i.LIS3DH_SetIntConfiguration) refers to ofo_lis3dh.o(i.LIS3DH_WriteReg) for LIS3DH_WriteReg
    ofo_lis3dh.o(i.LIS3DH_SetIntMode) refers to ofo_lis3dh.o(i.LIS3DH_ReadReg) for LIS3DH_ReadReg
    ofo_lis3dh.o(i.LIS3DH_SetIntMode) refers to ofo_lis3dh.o(i.LIS3DH_WriteReg) for LIS3DH_WriteReg
    ofo_lis3dh.o(i.LIS3DH_SetMode) refers to ofo_lis3dh.o(i.LIS3DH_ReadReg) for LIS3DH_ReadReg
    ofo_lis3dh.o(i.LIS3DH_SetMode) refers to ofo_lis3dh.o(i.LIS3DH_WriteReg) for LIS3DH_WriteReg
    ofo_lis3dh.o(i.LIS3DH_SetMode) refers to ofo_lis3dh.o(.data) for ODR_old_value
    ofo_lis3dh.o(i.LIS3DH_SetODR) refers to ofo_lis3dh.o(i.LIS3DH_ReadReg) for LIS3DH_ReadReg
    ofo_lis3dh.o(i.LIS3DH_SetODR) refers to ofo_lis3dh.o(i.LIS3DH_WriteReg) for LIS3DH_WriteReg
    ofo_lis3dh.o(i.LIS3DH_SetSPIInterface) refers to ofo_lis3dh.o(i.LIS3DH_ReadReg) for LIS3DH_ReadReg
    ofo_lis3dh.o(i.LIS3DH_SetSPIInterface) refers to ofo_lis3dh.o(i.LIS3DH_WriteReg) for LIS3DH_WriteReg
    ofo_lis3dh.o(i.LIS3DH_SetSelfTest) refers to ofo_lis3dh.o(i.LIS3DH_ReadReg) for LIS3DH_ReadReg
    ofo_lis3dh.o(i.LIS3DH_SetSelfTest) refers to ofo_lis3dh.o(i.LIS3DH_WriteReg) for LIS3DH_WriteReg
    ofo_lis3dh.o(i.LIS3DH_SetTemperature) refers to ofo_lis3dh.o(i.LIS3DH_ReadReg) for LIS3DH_ReadReg
    ofo_lis3dh.o(i.LIS3DH_SetTemperature) refers to ofo_lis3dh.o(i.LIS3DH_WriteReg) for LIS3DH_WriteReg
    ofo_lis3dh.o(i.LIS3DH_SetTriggerInt) refers to ofo_lis3dh.o(i.LIS3DH_ReadReg) for LIS3DH_ReadReg
    ofo_lis3dh.o(i.LIS3DH_SetTriggerInt) refers to ofo_lis3dh.o(i.LIS3DH_WriteReg) for LIS3DH_WriteReg
    ofo_lis3dh.o(i.LIS3DH_SetWaterMark) refers to ofo_lis3dh.o(i.LIS3DH_ReadReg) for LIS3DH_ReadReg
    ofo_lis3dh.o(i.LIS3DH_SetWaterMark) refers to ofo_lis3dh.o(i.LIS3DH_WriteReg) for LIS3DH_WriteReg
    ofo_lis3dh.o(i.LIS3DH_WriteReg) refers to twi_hw_master.o(i.my_twi_write) for my_twi_write
    ofo_lis3dh.o(i.LIS3DHinit) refers to ofo_lis3dh.o(i.LIS3DH_SetODR) for LIS3DH_SetODR
    ofo_lis3dh.o(i.LIS3DHinit) refers to ofo_lis3dh.o(i.LIS3DH_SetMode) for LIS3DH_SetMode
    ofo_lis3dh.o(i.LIS3DHinit) refers to ofo_lis3dh.o(i.LIS3DH_SetFullScale) for LIS3DH_SetFullScale
    ofo_lis3dh.o(i.LIS3DHinit) refers to ofo_lis3dh.o(i.LIS3DH_SetAxis) for LIS3DH_SetAxis
    ofo_lis3dh.o(i.LIS3DHinit) refers to ofo_lis3dh.o(i.LIS3DH_SetInt1Pin) for LIS3DH_SetInt1Pin
    ofo_lis3dh.o(i.LIS3DHinit) refers to ofo_lis3dh.o(i.LIS3DH_SetWaterMark) for LIS3DH_SetWaterMark
    ofo_lis3dh.o(i.LIS3DHinit) refers to ofo_lis3dh.o(i.LIS3DH_FIFOModeEnable) for LIS3DH_FIFOModeEnable
    ofo_lis3dh.o(i.LIS3DHinit) refers to ofo_lis3dh.o(i.LIS3DH_GetFifoSourceFSS) for LIS3DH_GetFifoSourceFSS
    ofo_lis3dh.o(i.LIS3DHinit) refers to ofo_lis3dh.o(i.LIS3DH_GetAccAxesRaw) for LIS3DH_GetAccAxesRaw
    ofo_lis3dh.o(i.test) refers to ofo_lis3dh.o(i.LIS3DH_GetAccAxesRaw) for LIS3DH_GetAccAxesRaw
    ofo_lis3dh.o(i.test1) refers to ofo_lis3dh.o(i.LIS3DH_GetAccAxesRaw) for LIS3DH_GetAccAxesRaw
    ofo_ble_unlock.o(i.SendStr2App) refers to ble_nus.o(i.ble_nus_string_send) for ble_nus_string_send
    ofo_ble_unlock.o(i.SendStr2App) refers to app_error.o(i.app_error_handler) for app_error_handler
    ofo_ble_unlock.o(i.SendStr2App) refers to main.o(.bss) for m_nus
    ofo_key_unlock.o(i.button_event_handler) refers to app_timer.o(i.app_timer_start) for app_timer_start
    ofo_key_unlock.o(i.button_event_handler) refers to app_error.o(i.app_error_handler) for app_error_handler
    ofo_key_unlock.o(i.button_event_handler) refers to ofo_led.o(i.__ARM_common_switch8) for __ARM_common_switch8
    ofo_key_unlock.o(i.button_event_handler) refers to ofo_buzz.o(i.KeyCVoice) for KeyCVoice
    ofo_key_unlock.o(i.button_event_handler) refers to ofo_buzz.o(i.KeyVoice) for KeyVoice
    ofo_key_unlock.o(i.button_event_handler) refers to ofo_led.o(i.LED_flash) for LED_flash
    ofo_key_unlock.o(i.button_event_handler) refers to strcmp.o(.text) for strcmp
    ofo_key_unlock.o(i.button_event_handler) refers to ofo_buzz.o(i.VoicePasswordOK) for VoicePasswordOK
    ofo_key_unlock.o(i.button_event_handler) refers to ofo_lock.o(i.OpenLockTime) for OpenLockTime
    ofo_key_unlock.o(i.button_event_handler) refers to ofo_buzz.o(i.VoicePasswordErr) for VoicePasswordErr
    ofo_key_unlock.o(i.button_event_handler) refers to ofo_key_unlock.o(.constdata) for Key_unlock_timer_id
    ofo_key_unlock.o(i.button_event_handler) refers to ofo_key_unlock.o(.data) for KeyTimeOut
    ofo_key_unlock.o(i.gpiote_int_init) refers to nrf_drv_gpiote.o(i.nrf_drv_gpiote_init) for nrf_drv_gpiote_init
    ofo_key_unlock.o(i.gpiote_int_init) refers to app_error.o(i.app_error_handler) for app_error_handler
    ofo_key_unlock.o(i.gpiote_int_init) refers to nrf_drv_gpiote.o(i.nrf_drv_gpiote_in_init) for nrf_drv_gpiote_in_init
    ofo_key_unlock.o(i.gpiote_int_init) refers to nrf_drv_gpiote.o(i.nrf_drv_gpiote_in_event_enable) for nrf_drv_gpiote_in_event_enable
    ofo_key_unlock.o(i.gpiote_int_init) refers to ofo_key_unlock.o(.constdata) for .constdata
    ofo_key_unlock.o(i.gpiote_int_init) refers to ofo_key_unlock.o(i.button_event_handler) for button_event_handler
    ofo_key_unlock.o(i.key_unlock_init) refers to app_timer.o(i.app_timer_create) for app_timer_create
    ofo_key_unlock.o(i.key_unlock_init) refers to app_error.o(i.app_error_handler) for app_error_handler
    ofo_key_unlock.o(i.key_unlock_init) refers to ofo_key_unlock.o(i.gpiote_int_init) for gpiote_int_init
    ofo_key_unlock.o(i.key_unlock_init) refers to ofo_key_unlock.o(i.key_unlock_timer_handler) for key_unlock_timer_handler
    ofo_key_unlock.o(i.key_unlock_init) refers to ofo_key_unlock.o(.constdata) for Key_unlock_timer_id
    ofo_key_unlock.o(i.key_unlock_timer_handler) refers to app_timer.o(i.app_timer_stop) for app_timer_stop
    ofo_key_unlock.o(i.key_unlock_timer_handler) refers to ofo_key_unlock.o(.data) for password_err
    ofo_key_unlock.o(i.key_unlock_timer_handler) refers to ofo_key_unlock.o(.constdata) for Key_unlock_timer_id
    ofo_key_unlock.o(.constdata) refers to ofo_key_unlock.o(.bss) for Key_unlock_timer_id_data
    ofo_factory_test.o(i.AUTCommandDeal) refers to ofo_factory_test.o(.data) for accredit
    ofo_factory_test.o(i.CommandDeal) refers to ofo_factory_test.o(i.SETCommandDeal) for SETCommandDeal
    ofo_factory_test.o(i.CommandDeal) refers to noretval__2printf.o(.text) for __2printf
    ofo_factory_test.o(i.CommandDeal) refers to ofo_factory_test.o(.data) for accredit
    ofo_factory_test.o(i.SETCommandDeal) refers to _printf_percent.o(.ARM.Collect$$_printf_percent$$00000000) for _printf_percent
    ofo_factory_test.o(i.SETCommandDeal) refers to _printf_s.o(.ARM.Collect$$_printf_percent$$00000014) for _printf_s
    ofo_factory_test.o(i.SETCommandDeal) refers to _printf_str.o(.text) for _printf_str
    ofo_factory_test.o(i.SETCommandDeal) refers to ofo_led.o(i.__ARM_common_switch8) for __ARM_common_switch8
    ofo_factory_test.o(i.SETCommandDeal) refers to ofo_lock.o(i.OpenLockTime) for OpenLockTime
    ofo_factory_test.o(i.SETCommandDeal) refers to ofo_date.o(i.SetTimeStamp) for SetTimeStamp
    ofo_factory_test.o(i.SETCommandDeal) refers to ofo_lis3dh.o(i.LIS3DH_GetWHO_AM_I) for LIS3DH_GetWHO_AM_I
    ofo_factory_test.o(i.SETCommandDeal) refers to noretval__2printf.o(.text) for __2printf
    ofo_factory_test.o(i.SETCommandDeal) refers to ofo_lis3dh.o(i.LIS3DH_GetAccAxesRaw) for LIS3DH_GetAccAxesRaw
    ofo_factory_test.o(i.SETCommandDeal) refers to ofo_flash.o(i.WriteParm) for WriteParm
    ofo_factory_test.o(i.SETCommandDeal) refers to ofo_flash.o(i.Readparm) for Readparm
    ofo_factory_test.o(i.SETCommandDeal) refers to strcmp.o(.text) for strcmp
    ofo_factory_test.o(i.SETCommandDeal) refers to ofo_factory_test.o(i.nrf_gpio_pin_set) for nrf_gpio_pin_set
    ofo_factory_test.o(i.SETCommandDeal) refers to ofo_factory_test.o(i.nrf_gpio_pin_clear) for nrf_gpio_pin_clear
    ofo_factory_test.o(i.SETCommandDeal) refers to nrf_delay.o(i.nrf_delay_ms) for nrf_delay_ms
    ofo_factory_test.o(i.SETCommandDeal) refers to nrf_drv_gpiote.o(i.nrf_drv_gpiote_in_event_enable) for nrf_drv_gpiote_in_event_enable
    ofo_factory_test.o(i.SETCommandDeal) refers to nrf_drv_gpiote.o(i.nrf_drv_gpiote_in_event_disable) for nrf_drv_gpiote_in_event_disable
    ofo_factory_test.o(i.SETCommandDeal) refers to ofo_factory_test.o(.data) for lock1_test
    arm_startup_nrf51.o(STACK) refers (Special) to heapauxi.o(.text) for __use_two_region_memory
    arm_startup_nrf51.o(HEAP) refers (Special) to heapauxi.o(.text) for __use_two_region_memory
    arm_startup_nrf51.o(RESET) refers (Special) to heapauxi.o(.text) for __use_two_region_memory
    arm_startup_nrf51.o(RESET) refers to arm_startup_nrf51.o(STACK) for __initial_sp
    arm_startup_nrf51.o(RESET) refers to arm_startup_nrf51.o(.text) for Reset_Handler
    arm_startup_nrf51.o(RESET) refers to nrf_drv_uart.o(i.UART0_IRQHandler) for UART0_IRQHandler
    arm_startup_nrf51.o(RESET) refers to nrf_drv_spi.o(i.SPI0_TWI0_IRQHandler) for SPI0_TWI0_IRQHandler
    arm_startup_nrf51.o(RESET) refers to nrf_drv_gpiote.o(i.GPIOTE_IRQHandler) for GPIOTE_IRQHandler
    arm_startup_nrf51.o(RESET) refers to ofo_adc.o(i.ADC_IRQHandler) for ADC_IRQHandler
    arm_startup_nrf51.o(RESET) refers to nrf_drv_wdt.o(i.WDT_IRQHandler) for WDT_IRQHandler
    arm_startup_nrf51.o(RESET) refers to app_timer.o(i.RTC1_IRQHandler) for RTC1_IRQHandler
    arm_startup_nrf51.o(RESET) refers to app_timer.o(i.SWI0_IRQHandler) for SWI0_IRQHandler
    arm_startup_nrf51.o(RESET) refers to softdevice_handler.o(i.SWI2_IRQHandler) for SWI2_IRQHandler
    arm_startup_nrf51.o(.text) refers (Special) to heapauxi.o(.text) for __use_two_region_memory
    arm_startup_nrf51.o(.text) refers to system_nrf51.o(i.SystemInit) for SystemInit
    arm_startup_nrf51.o(.text) refers to __main.o(!!!main) for __main
    arm_startup_nrf51.o(.text) refers to arm_startup_nrf51.o(HEAP) for Heap_Mem
    arm_startup_nrf51.o(.text) refers to arm_startup_nrf51.o(STACK) for Stack_Mem
    system_nrf51.o(i.SystemCoreClockUpdate) refers to system_nrf51.o(.data) for SystemCoreClock
    system_nrf51.o(i.SystemInit) refers to system_nrf51.o(i.is_manual_peripheral_setup_needed) for is_manual_peripheral_setup_needed
    system_nrf51.o(i.SystemInit) refers to system_nrf51.o(i.is_disabled_in_debug_needed) for is_disabled_in_debug_needed
    ble_advdata.o(i.adv_data_encode) refers to ble_advdata.o(i.sec_mgr_oob_flags_encode) for sec_mgr_oob_flags_encode
    ble_advdata.o(i.adv_data_encode) refers to ble_advdata.o(i.tk_value_encode) for tk_value_encode
    ble_advdata.o(i.adv_data_encode) refers to ble_advdata.o(i.le_role_encode) for le_role_encode
    ble_advdata.o(i.adv_data_encode) refers to ble_advdata.o(i.ble_device_addr_encode) for ble_device_addr_encode
    ble_advdata.o(i.adv_data_encode) refers to ble_advdata.o(i.appearance_encode) for appearance_encode
    ble_advdata.o(i.adv_data_encode) refers to ble_advdata.o(i.flags_encode) for flags_encode
    ble_advdata.o(i.adv_data_encode) refers to ble_advdata.o(i.tx_power_level_encode) for tx_power_level_encode
    ble_advdata.o(i.adv_data_encode) refers to ble_advdata.o(i.uuid_list_encode) for uuid_list_encode
    ble_advdata.o(i.adv_data_encode) refers to ble_advdata.o(i.conn_int_encode) for conn_int_encode
    ble_advdata.o(i.adv_data_encode) refers to ble_advdata.o(i.manuf_specific_data_encode) for manuf_specific_data_encode
    ble_advdata.o(i.adv_data_encode) refers to ble_advdata.o(i.service_data_encode) for service_data_encode
    ble_advdata.o(i.adv_data_encode) refers to ble_advdata.o(i.name_encode) for name_encode
    ble_advdata.o(i.appearance_encode) refers to ble_advdata.o(i.uint16_encode) for uint16_encode
    ble_advdata.o(i.ble_advdata_set) refers to ble_advdata.o(i.advdata_check) for advdata_check
    ble_advdata.o(i.ble_advdata_set) refers to ble_advdata.o(i.adv_data_encode) for adv_data_encode
    ble_advdata.o(i.ble_advdata_set) refers to ble_advdata.o(i.srdata_check) for srdata_check
    ble_advdata.o(i.ble_device_addr_encode) refers to rt_memcpy.o(.text) for __aeabi_memcpy
    ble_advdata.o(i.conn_int_encode) refers to ble_advdata.o(i.conn_int_check) for conn_int_check
    ble_advdata.o(i.conn_int_encode) refers to ble_advdata.o(i.uint16_encode) for uint16_encode
    ble_advdata.o(i.manuf_specific_data_encode) refers to ble_advdata.o(i.uint16_encode) for uint16_encode
    ble_advdata.o(i.manuf_specific_data_encode) refers to rt_memcpy.o(.text) for __aeabi_memcpy
    ble_advdata.o(i.service_data_encode) refers to ble_advdata.o(i.uint16_encode) for uint16_encode
    ble_advdata.o(i.service_data_encode) refers to rt_memcpy.o(.text) for __aeabi_memcpy
    ble_advdata.o(i.uuid_list_encode) refers to ble_advdata.o(i.uuid_list_sized_encode) for uuid_list_sized_encode
    ble_advertising.o(i.ble_advertising_init) refers to rt_memcpy.o(.emb_text) for __aeabi_memcpy4
    ble_advertising.o(i.ble_advertising_init) refers to ble_advertising.o(i.ble_advertising_peer_address_clear) for ble_advertising_peer_address_clear
    ble_advertising.o(i.ble_advertising_init) refers to rt_memclr.o(.text) for __aeabi_memclr4
    ble_advertising.o(i.ble_advertising_init) refers to ble_advdata.o(i.ble_advdata_set) for ble_advdata_set
    ble_advertising.o(i.ble_advertising_init) refers to ble_advertising.o(.data) for m_adv_mode_current
    ble_advertising.o(i.ble_advertising_init) refers to ble_advertising.o(.bss) for m_adv_modes_config
    ble_advertising.o(i.ble_advertising_on_ble_evt) refers to ble_advertising.o(i.ble_advertising_start) for ble_advertising_start
    ble_advertising.o(i.ble_advertising_on_ble_evt) refers to ble_advertising.o(.data) for current_slave_link_conn_handle
    ble_advertising.o(i.ble_advertising_on_sys_evt) refers to ble_advertising.o(i.ble_advertising_start) for ble_advertising_start
    ble_advertising.o(i.ble_advertising_on_sys_evt) refers to ble_advertising.o(.data) for m_advertising_start_pending
    ble_advertising.o(i.ble_advertising_peer_addr_reply) refers to ble_advertising.o(.data) for m_peer_addr_reply_expected
    ble_advertising.o(i.ble_advertising_peer_address_clear) refers to rt_memclr.o(.text) for __aeabi_memclr
    ble_advertising.o(i.ble_advertising_peer_address_clear) refers to ble_advertising.o(.data) for m_peer_address
    ble_advertising.o(i.ble_advertising_restart_without_whitelist) refers to ble_advertising.o(i.ble_advertising_start) for ble_advertising_start
    ble_advertising.o(i.ble_advertising_restart_without_whitelist) refers to ble_advertising.o(.bss) for m_adv_modes_config
    ble_advertising.o(i.ble_advertising_restart_without_whitelist) refers to ble_advertising.o(.data) for m_whitelist_temporarily_disabled
    ble_advertising.o(i.ble_advertising_start) refers to pstorage.o(i.pstorage_access_status_get) for pstorage_access_status_get
    ble_advertising.o(i.ble_advertising_start) refers to ble_advertising.o(i.ble_advertising_peer_address_clear) for ble_advertising_peer_address_clear
    ble_advertising.o(i.ble_advertising_start) refers to ble_advertising.o(i.peer_address_exists) for peer_address_exists
    ble_advertising.o(i.ble_advertising_start) refers to rt_memclr.o(.text) for __aeabi_memclr4
    ble_advertising.o(i.ble_advertising_start) refers to ble_advertising.o(i.whitelist_has_entries) for whitelist_has_entries
    ble_advertising.o(i.ble_advertising_start) refers to ble_advdata.o(i.ble_advdata_set) for ble_advdata_set
    ble_advertising.o(i.ble_advertising_start) refers to ble_advertising.o(.data) for m_adv_mode_current
    ble_advertising.o(i.ble_advertising_start) refers to ble_advertising.o(.bss) for m_adv_modes_config
    ble_advertising.o(i.ble_advertising_whitelist_reply) refers to ble_advertising.o(.data) for m_whitelist_reply_expected
    ble_advertising.o(i.ble_advertising_whitelist_reply) refers to ble_advertising.o(.bss) for m_whitelist
    ble_conn_params.o(i.ble_conn_params_change_conn_params) refers to rt_memcpy.o(.text) for __aeabi_memcpy
    ble_conn_params.o(i.ble_conn_params_change_conn_params) refers to ble_conn_params.o(i.is_conn_params_ok) for is_conn_params_ok
    ble_conn_params.o(i.ble_conn_params_change_conn_params) refers to ble_conn_params.o(.data) for m_preferred_conn_params
    ble_conn_params.o(i.ble_conn_params_change_conn_params) refers to ble_conn_params.o(.bss) for m_conn_params_config
    ble_conn_params.o(i.ble_conn_params_init) refers to rt_memcpy.o(.emb_text) for __aeabi_memcpy4
    ble_conn_params.o(i.ble_conn_params_init) refers to rt_memcpy.o(.text) for __aeabi_memcpy
    ble_conn_params.o(i.ble_conn_params_init) refers to app_timer.o(i.app_timer_create) for app_timer_create
    ble_conn_params.o(i.ble_conn_params_init) refers to ble_conn_params.o(.bss) for m_conn_params_config
    ble_conn_params.o(i.ble_conn_params_init) refers to ble_conn_params.o(.data) for m_change_param
    ble_conn_params.o(i.ble_conn_params_init) refers to ble_conn_params.o(i.update_timeout_handler) for update_timeout_handler
    ble_conn_params.o(i.ble_conn_params_init) refers to ble_conn_params.o(.constdata) for m_conn_params_timer_id
    ble_conn_params.o(i.ble_conn_params_on_ble_evt) refers to ble_conn_params.o(i.on_connect) for on_connect
    ble_conn_params.o(i.ble_conn_params_on_ble_evt) refers to ble_conn_params.o(i.on_disconnect) for on_disconnect
    ble_conn_params.o(i.ble_conn_params_on_ble_evt) refers to ble_conn_params.o(i.on_write) for on_write
    ble_conn_params.o(i.ble_conn_params_on_ble_evt) refers to ble_conn_params.o(i.on_conn_params_update) for on_conn_params_update
    ble_conn_params.o(i.ble_conn_params_stop) refers to app_timer.o(i.app_timer_stop) for app_timer_stop
    ble_conn_params.o(i.ble_conn_params_stop) refers to ble_conn_params.o(.constdata) for m_conn_params_timer_id
    ble_conn_params.o(i.conn_params_negotiation) refers to ble_conn_params.o(i.is_conn_params_ok) for is_conn_params_ok
    ble_conn_params.o(i.conn_params_negotiation) refers to app_timer.o(i.app_timer_start) for app_timer_start
    ble_conn_params.o(i.conn_params_negotiation) refers to ble_conn_params.o(.data) for m_current_conn_params
    ble_conn_params.o(i.conn_params_negotiation) refers to ble_conn_params.o(.bss) for m_conn_params_config
    ble_conn_params.o(i.conn_params_negotiation) refers to ble_conn_params.o(.constdata) for m_conn_params_timer_id
    ble_conn_params.o(i.is_conn_params_ok) refers to ble_conn_params.o(.data) for m_preferred_conn_params
    ble_conn_params.o(i.on_conn_params_update) refers to rt_memcpy.o(.text) for __aeabi_memcpy
    ble_conn_params.o(i.on_conn_params_update) refers to ble_conn_params.o(i.conn_params_negotiation) for conn_params_negotiation
    ble_conn_params.o(i.on_conn_params_update) refers to ble_conn_params.o(.data) for m_current_conn_params
    ble_conn_params.o(i.on_connect) refers to rt_memcpy.o(.text) for __aeabi_memcpy
    ble_conn_params.o(i.on_connect) refers to ble_conn_params.o(i.conn_params_negotiation) for conn_params_negotiation
    ble_conn_params.o(i.on_connect) refers to ble_conn_params.o(.data) for m_conn_handle
    ble_conn_params.o(i.on_connect) refers to ble_conn_params.o(.bss) for m_conn_params_config
    ble_conn_params.o(i.on_disconnect) refers to app_timer.o(i.app_timer_stop) for app_timer_stop
    ble_conn_params.o(i.on_disconnect) refers to ble_conn_params.o(.data) for m_conn_handle
    ble_conn_params.o(i.on_disconnect) refers to ble_conn_params.o(.constdata) for m_conn_params_timer_id
    ble_conn_params.o(i.on_disconnect) refers to ble_conn_params.o(.bss) for m_conn_params_config
    ble_conn_params.o(i.on_write) refers to ble_conn_params.o(i.conn_params_negotiation) for conn_params_negotiation
    ble_conn_params.o(i.on_write) refers to app_timer.o(i.app_timer_stop) for app_timer_stop
    ble_conn_params.o(i.on_write) refers to ble_conn_params.o(.bss) for m_conn_params_config
    ble_conn_params.o(i.on_write) refers to ble_conn_params.o(.constdata) for m_conn_params_timer_id
    ble_conn_params.o(i.update_timeout_handler) refers to ble_conn_params.o(.data) for m_conn_handle
    ble_conn_params.o(i.update_timeout_handler) refers to ble_conn_params.o(.bss) for m_conn_params_config
    ble_conn_params.o(.constdata) refers to ble_conn_params.o(.bss) for m_conn_params_timer_id_data
    ble_nus.o(i.ble_nus_init) refers to ble_nus.o(i.rx_char_add) for rx_char_add
    ble_nus.o(i.ble_nus_init) refers to ble_nus.o(i.tx_char_add) for tx_char_add
    ble_nus.o(i.ble_nus_init) refers to ble_nus.o(.constdata) for .constdata
    ble_nus.o(i.ble_nus_on_ble_evt) refers to ble_nus.o(i.on_connect) for on_connect
    ble_nus.o(i.ble_nus_on_ble_evt) refers to ble_nus.o(i.on_disconnect) for on_disconnect
    ble_nus.o(i.ble_nus_on_ble_evt) refers to ble_nus.o(i.on_write) for on_write
    ble_nus.o(i.rx_char_add) refers to rt_memclr.o(.text) for __aeabi_memclr4
    ble_nus.o(i.tx_char_add) refers to rt_memclr.o(.text) for __aeabi_memclr4
    ble_srv_common.o(i.ble_srv_ascii_to_utf8) refers to strlen.o(.text) for strlen
    ble_srv_common.o(i.ble_srv_report_ref_encode) refers to app_error.o(i.app_error_handler) for app_error_handler
    ble_srv_common.o(i.characteristic_add) refers to ble_srv_common.o(i.set_security_req) for set_security_req
    ble_srv_common.o(i.characteristic_add) refers to rt_memclr.o(.text) for __aeabi_memclr4
    ble_srv_common.o(i.descriptor_add) refers to rt_memclr.o(.text) for __aeabi_memclr4
    ble_srv_common.o(i.descriptor_add) refers to ble_srv_common.o(i.set_security_req) for set_security_req
    ble_srv_common.o(i.set_security_req) refers to ofo_led.o(i.__ARM_common_switch8) for __ARM_common_switch8
    nrf_adc.o(i.nrf_adc_configure) refers to nrf_adc.o(i.nrf_adc_input_select) for nrf_adc_input_select
    nrf_adc.o(i.nrf_adc_convert_single) refers to nrf_adc.o(i.nrf_adc_input_select) for nrf_adc_input_select
    nrf_delay.o(i.nrf_delay_ms) refers to nrf_delay.o(.emb_text) for __asm___11_nrf_delay_c_532987f3__nrf_delay_us
    nrf_drv_common.o(i.nrf_drv_common_irq_enable) refers to nrf_drv_common.o(i.NVIC_SetPriority) for NVIC_SetPriority
    nrf_drv_gpiote.o(i.GPIOTE_IRQHandler) refers to nrf_drv_gpiote.o(i.nrf_gpiote_event_is_set) for nrf_gpiote_event_is_set
    nrf_drv_gpiote.o(i.GPIOTE_IRQHandler) refers to nrf_drv_gpiote.o(i.nrf_gpiote_event_clear) for nrf_gpiote_event_clear
    nrf_drv_gpiote.o(i.GPIOTE_IRQHandler) refers to nrf_drv_gpiote.o(i.channel_handler_get) for channel_handler_get
    nrf_drv_gpiote.o(i.GPIOTE_IRQHandler) refers to nrf_drv_gpiote.o(i.channel_port_get) for channel_port_get
    nrf_drv_gpiote.o(i.GPIOTE_IRQHandler) refers to nrf_drv_gpiote.o(i.nrf_gpio_cfg_sense_set) for nrf_gpio_cfg_sense_set
    nrf_drv_gpiote.o(i.GPIOTE_IRQHandler) refers to nrf_drv_gpiote.o(.bss) for m_cb
    nrf_drv_gpiote.o(i.channel_free) refers to nrf_drv_gpiote.o(.bss) for m_cb
    nrf_drv_gpiote.o(i.channel_handler_get) refers to nrf_drv_gpiote.o(.bss) for m_cb
    nrf_drv_gpiote.o(i.channel_port_alloc) refers to nrf_drv_gpiote.o(.bss) for m_cb
    nrf_drv_gpiote.o(i.channel_port_get) refers to nrf_drv_gpiote.o(.bss) for m_cb
    nrf_drv_gpiote.o(i.nrf_drv_gpiote_in_event_addr_get) refers to nrf_drv_gpiote.o(i.channel_port_get) for channel_port_get
    nrf_drv_gpiote.o(i.nrf_drv_gpiote_in_event_addr_get) refers to nrf_drv_gpiote.o(i.nrf_gpiote_event_addr_get) for nrf_gpiote_event_addr_get
    nrf_drv_gpiote.o(i.nrf_drv_gpiote_in_event_disable) refers to nrf_drv_gpiote.o(i.pin_in_use_by_port) for pin_in_use_by_port
    nrf_drv_gpiote.o(i.nrf_drv_gpiote_in_event_disable) refers to nrf_drv_gpiote.o(i.nrf_gpio_cfg_sense_set) for nrf_gpio_cfg_sense_set
    nrf_drv_gpiote.o(i.nrf_drv_gpiote_in_event_disable) refers to nrf_drv_gpiote.o(i.pin_in_use_by_te) for pin_in_use_by_te
    nrf_drv_gpiote.o(i.nrf_drv_gpiote_in_event_disable) refers to nrf_drv_gpiote.o(i.channel_port_get) for channel_port_get
    nrf_drv_gpiote.o(i.nrf_drv_gpiote_in_event_enable) refers to nrf_drv_gpiote.o(i.pin_in_use_by_port) for pin_in_use_by_port
    nrf_drv_gpiote.o(i.nrf_drv_gpiote_in_event_enable) refers to nrf_drv_gpiote.o(i.channel_port_get) for channel_port_get
    nrf_drv_gpiote.o(i.nrf_drv_gpiote_in_event_enable) refers to nrf_drv_gpiote.o(i.nrf_gpio_cfg_sense_set) for nrf_gpio_cfg_sense_set
    nrf_drv_gpiote.o(i.nrf_drv_gpiote_in_event_enable) refers to nrf_drv_gpiote.o(i.pin_in_use_by_te) for pin_in_use_by_te
    nrf_drv_gpiote.o(i.nrf_drv_gpiote_in_event_enable) refers to nrf_drv_gpiote.o(i.nrf_gpiote_event_clear) for nrf_gpiote_event_clear
    nrf_drv_gpiote.o(i.nrf_drv_gpiote_in_event_enable) refers to nrf_drv_gpiote.o(i.channel_handler_get) for channel_handler_get
    nrf_drv_gpiote.o(i.nrf_drv_gpiote_in_event_enable) refers to nrf_drv_gpiote.o(i.nrf_gpiote_int_enable) for nrf_gpiote_int_enable
    nrf_drv_gpiote.o(i.nrf_drv_gpiote_in_event_enable) refers to nrf_drv_gpiote.o(.bss) for m_cb
    nrf_drv_gpiote.o(i.nrf_drv_gpiote_in_init) refers to nrf_drv_gpiote.o(i.pin_in_use_by_gpiote) for pin_in_use_by_gpiote
    nrf_drv_gpiote.o(i.nrf_drv_gpiote_in_init) refers to nrf_drv_gpiote.o(i.channel_port_alloc) for channel_port_alloc
    nrf_drv_gpiote.o(i.nrf_drv_gpiote_in_init) refers to nrf_drv_gpiote.o(i.nrf_gpio_cfg) for nrf_gpio_cfg
    nrf_drv_gpiote.o(i.nrf_drv_gpiote_in_init) refers to nrf_drv_gpiote.o(.bss) for m_cb
    nrf_drv_gpiote.o(i.nrf_drv_gpiote_in_uninit) refers to nrf_drv_gpiote.o(i.nrf_drv_gpiote_in_event_disable) for nrf_drv_gpiote_in_event_disable
    nrf_drv_gpiote.o(i.nrf_drv_gpiote_in_uninit) refers to nrf_drv_gpiote.o(i.pin_in_use_by_te) for pin_in_use_by_te
    nrf_drv_gpiote.o(i.nrf_drv_gpiote_in_uninit) refers to nrf_drv_gpiote.o(i.channel_port_get) for channel_port_get
    nrf_drv_gpiote.o(i.nrf_drv_gpiote_in_uninit) refers to nrf_drv_gpiote.o(i.nrf_gpiote_te_default) for nrf_gpiote_te_default
    nrf_drv_gpiote.o(i.nrf_drv_gpiote_in_uninit) refers to nrf_drv_gpiote.o(i.nrf_gpio_cfg_default) for nrf_gpio_cfg_default
    nrf_drv_gpiote.o(i.nrf_drv_gpiote_in_uninit) refers to nrf_drv_gpiote.o(i.channel_free) for channel_free
    nrf_drv_gpiote.o(i.nrf_drv_gpiote_in_uninit) refers to nrf_drv_gpiote.o(i.pin_in_use_clear) for pin_in_use_clear
    nrf_drv_gpiote.o(i.nrf_drv_gpiote_init) refers to nrf_drv_gpiote.o(i.pin_in_use_clear) for pin_in_use_clear
    nrf_drv_gpiote.o(i.nrf_drv_gpiote_init) refers to nrf_drv_gpiote.o(i.channel_free) for channel_free
    nrf_drv_gpiote.o(i.nrf_drv_gpiote_init) refers to nrf_drv_common.o(i.nrf_drv_common_irq_enable) for nrf_drv_common_irq_enable
    nrf_drv_gpiote.o(i.nrf_drv_gpiote_init) refers to nrf_drv_gpiote.o(i.nrf_gpiote_int_enable) for nrf_gpiote_int_enable
    nrf_drv_gpiote.o(i.nrf_drv_gpiote_init) refers to nrf_drv_gpiote.o(.bss) for m_cb
    nrf_drv_gpiote.o(i.nrf_drv_gpiote_is_init) refers to nrf_drv_gpiote.o(.bss) for m_cb
    nrf_drv_gpiote.o(i.nrf_drv_gpiote_out_clear) refers to nrf_drv_gpiote.o(i.nrf_gpio_pin_clear) for nrf_gpio_pin_clear
    nrf_drv_gpiote.o(i.nrf_drv_gpiote_out_init) refers to nrf_drv_gpiote.o(i.channel_port_alloc) for channel_port_alloc
    nrf_drv_gpiote.o(i.nrf_drv_gpiote_out_init) refers to nrf_drv_gpiote.o(i.nrf_gpio_pin_set) for nrf_gpio_pin_set
    nrf_drv_gpiote.o(i.nrf_drv_gpiote_out_init) refers to nrf_drv_gpiote.o(i.nrf_gpio_pin_clear) for nrf_gpio_pin_clear
    nrf_drv_gpiote.o(i.nrf_drv_gpiote_out_init) refers to nrf_drv_gpiote.o(i.nrf_gpio_cfg) for nrf_gpio_cfg
    nrf_drv_gpiote.o(i.nrf_drv_gpiote_out_init) refers to nrf_drv_gpiote.o(.bss) for m_cb
    nrf_drv_gpiote.o(i.nrf_drv_gpiote_out_set) refers to nrf_drv_gpiote.o(i.nrf_gpio_pin_set) for nrf_gpio_pin_set
    nrf_drv_gpiote.o(i.nrf_drv_gpiote_out_task_addr_get) refers to nrf_drv_gpiote.o(i.channel_port_get) for channel_port_get
    nrf_drv_gpiote.o(i.nrf_drv_gpiote_out_task_disable) refers to nrf_drv_gpiote.o(.bss) for m_cb
    nrf_drv_gpiote.o(i.nrf_drv_gpiote_out_task_enable) refers to nrf_drv_gpiote.o(.bss) for m_cb
    nrf_drv_gpiote.o(i.nrf_drv_gpiote_out_task_force) refers to nrf_drv_gpiote.o(.bss) for m_cb
    nrf_drv_gpiote.o(i.nrf_drv_gpiote_out_task_trigger) refers to nrf_drv_gpiote.o(i.channel_port_get) for channel_port_get
    nrf_drv_gpiote.o(i.nrf_drv_gpiote_out_uninit) refers to nrf_drv_gpiote.o(i.pin_in_use_by_te) for pin_in_use_by_te
    nrf_drv_gpiote.o(i.nrf_drv_gpiote_out_uninit) refers to nrf_drv_gpiote.o(i.channel_port_get) for channel_port_get
    nrf_drv_gpiote.o(i.nrf_drv_gpiote_out_uninit) refers to nrf_drv_gpiote.o(i.channel_free) for channel_free
    nrf_drv_gpiote.o(i.nrf_drv_gpiote_out_uninit) refers to nrf_drv_gpiote.o(i.nrf_gpiote_te_default) for nrf_gpiote_te_default
    nrf_drv_gpiote.o(i.nrf_drv_gpiote_out_uninit) refers to nrf_drv_gpiote.o(i.pin_in_use_clear) for pin_in_use_clear
    nrf_drv_gpiote.o(i.nrf_drv_gpiote_out_uninit) refers to nrf_drv_gpiote.o(i.nrf_gpio_cfg_default) for nrf_gpio_cfg_default
    nrf_drv_gpiote.o(i.nrf_drv_gpiote_uninit) refers to nrf_drv_gpiote.o(i.nrf_drv_gpiote_out_uninit) for nrf_drv_gpiote_out_uninit
    nrf_drv_gpiote.o(i.nrf_drv_gpiote_uninit) refers to nrf_drv_gpiote.o(i.pin_in_use_by_gpiote) for pin_in_use_by_gpiote
    nrf_drv_gpiote.o(i.nrf_drv_gpiote_uninit) refers to nrf_drv_gpiote.o(i.nrf_drv_gpiote_in_uninit) for nrf_drv_gpiote_in_uninit
    nrf_drv_gpiote.o(i.nrf_drv_gpiote_uninit) refers to nrf_drv_gpiote.o(.bss) for m_cb
    nrf_drv_gpiote.o(i.nrf_gpio_cfg_default) refers to nrf_drv_gpiote.o(i.nrf_gpio_cfg) for nrf_gpio_cfg
    nrf_drv_gpiote.o(i.nrf_gpiote_event_clear) refers to nrf_drv_gpiote.o(i.nrf_gpiote_event_addr_get) for nrf_gpiote_event_addr_get
    nrf_drv_gpiote.o(i.nrf_gpiote_event_is_set) refers to nrf_drv_gpiote.o(i.nrf_gpiote_event_addr_get) for nrf_gpiote_event_addr_get
    nrf_drv_gpiote.o(i.pin_in_use_by_gpiote) refers to nrf_drv_gpiote.o(.bss) for m_cb
    nrf_drv_gpiote.o(i.pin_in_use_by_port) refers to nrf_drv_gpiote.o(.bss) for m_cb
    nrf_drv_gpiote.o(i.pin_in_use_by_te) refers to nrf_drv_gpiote.o(.bss) for m_cb
    nrf_drv_gpiote.o(i.pin_in_use_clear) refers to nrf_drv_gpiote.o(.bss) for m_cb
    nrf_drv_spi.o(i.SPI0_TWI0_IRQHandler) refers to nrf_drv_spi.o(i.irq_handler_spi) for irq_handler_spi
    nrf_drv_spi.o(i.SPI0_TWI0_IRQHandler) refers to nrf_drv_spi.o(.bss) for m_cb
    nrf_drv_spi.o(i.finish_transfer) refers to nrf_drv_spi.o(i.nrf_gpio_pin_set) for nrf_gpio_pin_set
    nrf_drv_spi.o(i.irq_handler_spi) refers to nrf_drv_spi.o(i.nrf_spi_event_clear) for nrf_spi_event_clear
    nrf_drv_spi.o(i.irq_handler_spi) refers to nrf_drv_spi.o(i.transfer_byte) for transfer_byte
    nrf_drv_spi.o(i.irq_handler_spi) refers to nrf_drv_spi.o(i.finish_transfer) for finish_transfer
    nrf_drv_spi.o(i.nrf_drv_spi_init) refers to nrf_drv_spi.o(i.nrf_gpio_pin_clear) for nrf_gpio_pin_clear
    nrf_drv_spi.o(i.nrf_drv_spi_init) refers to nrf_drv_spi.o(i.nrf_gpio_pin_set) for nrf_gpio_pin_set
    nrf_drv_spi.o(i.nrf_drv_spi_init) refers to nrf_drv_spi.o(i.nrf_gpio_cfg_output) for nrf_gpio_cfg_output
    nrf_drv_spi.o(i.nrf_drv_spi_init) refers to nrf_drv_spi.o(i.nrf_gpio_cfg) for nrf_gpio_cfg
    nrf_drv_spi.o(i.nrf_drv_spi_init) refers to nrf_drv_spi.o(i.nrf_spi_int_enable) for nrf_spi_int_enable
    nrf_drv_spi.o(i.nrf_drv_spi_init) refers to nrf_drv_common.o(i.nrf_drv_common_irq_enable) for nrf_drv_common_irq_enable
    nrf_drv_spi.o(i.nrf_drv_spi_init) refers to nrf_drv_spi.o(.bss) for m_cb
    nrf_drv_spi.o(i.nrf_drv_spi_init) refers to nrf_drv_spi.o(.constdata) for m_default_config
    nrf_drv_spi.o(i.nrf_drv_spi_transfer) refers to nrf_drv_spi.o(i.nrf_gpio_pin_clear) for nrf_gpio_pin_clear
    nrf_drv_spi.o(i.nrf_drv_spi_transfer) refers to nrf_drv_spi.o(i.nrf_spi_int_disable) for nrf_spi_int_disable
    nrf_drv_spi.o(i.nrf_drv_spi_transfer) refers to nrf_drv_spi.o(i.nrf_spi_event_clear) for nrf_spi_event_clear
    nrf_drv_spi.o(i.nrf_drv_spi_transfer) refers to nrf_drv_spi.o(i.nrf_spi_txd_set) for nrf_spi_txd_set
    nrf_drv_spi.o(i.nrf_drv_spi_transfer) refers to nrf_drv_spi.o(i.nrf_spi_int_enable) for nrf_spi_int_enable
    nrf_drv_spi.o(i.nrf_drv_spi_transfer) refers to nrf_drv_spi.o(i.transfer_byte) for transfer_byte
    nrf_drv_spi.o(i.nrf_drv_spi_transfer) refers to nrf_drv_spi.o(i.nrf_gpio_pin_set) for nrf_gpio_pin_set
    nrf_drv_spi.o(i.nrf_drv_spi_transfer) refers to nrf_drv_spi.o(.bss) for m_cb
    nrf_drv_spi.o(i.nrf_drv_spi_uninit) refers to nrf_drv_spi.o(i.nrf_spi_int_disable) for nrf_spi_int_disable
    nrf_drv_spi.o(i.nrf_drv_spi_uninit) refers to nrf_drv_spi.o(.bss) for m_cb
    nrf_drv_spi.o(i.nrf_gpio_cfg_output) refers to nrf_drv_spi.o(i.nrf_gpio_cfg) for nrf_gpio_cfg
    nrf_drv_spi.o(i.transfer_byte) refers to nrf_drv_spi.o(i.nrf_spi_txd_set) for nrf_spi_txd_set
    nrf_drv_uart.o(i.UART0_IRQHandler) refers to nrf_drv_uart.o(i.nrf_uart_int_enable_check) for nrf_uart_int_enable_check
    nrf_drv_uart.o(i.UART0_IRQHandler) refers to nrf_drv_uart.o(i.nrf_uart_event_check) for nrf_uart_event_check
    nrf_drv_uart.o(i.UART0_IRQHandler) refers to nrf_drv_uart.o(i.nrf_uart_event_clear) for nrf_uart_event_clear
    nrf_drv_uart.o(i.UART0_IRQHandler) refers to nrf_drv_uart.o(i.nrf_uart_int_disable) for nrf_uart_int_disable
    nrf_drv_uart.o(i.UART0_IRQHandler) refers to nrf_drv_uart.o(i.nrf_uart_task_trigger) for nrf_uart_task_trigger
    nrf_drv_uart.o(i.UART0_IRQHandler) refers to nrf_drv_uart.o(i.nrf_uart_errorsrc_get_and_clear) for nrf_uart_errorsrc_get_and_clear
    nrf_drv_uart.o(i.UART0_IRQHandler) refers to nrf_drv_uart.o(i.rx_byte) for rx_byte
    nrf_drv_uart.o(i.UART0_IRQHandler) refers to nrf_drv_uart.o(i.rx_done_event) for rx_done_event
    nrf_drv_uart.o(i.UART0_IRQHandler) refers to nrf_drv_uart.o(i.tx_byte) for tx_byte
    nrf_drv_uart.o(i.UART0_IRQHandler) refers to nrf_drv_uart.o(i.tx_done_event) for tx_done_event
    nrf_drv_uart.o(i.UART0_IRQHandler) refers to nrf_drv_uart.o(.bss) for m_cb
    nrf_drv_uart.o(i.apply_config) refers to nrf_drv_uart.o(i.nrf_gpio_cfg_output) for nrf_gpio_cfg_output
    nrf_drv_uart.o(i.apply_config) refers to nrf_drv_uart.o(i.nrf_gpio_pin_set) for nrf_gpio_pin_set
    nrf_drv_uart.o(i.apply_config) refers to nrf_drv_uart.o(i.nrf_gpio_cfg_input) for nrf_gpio_cfg_input
    nrf_drv_uart.o(i.apply_config) refers to nrf_drv_uart.o(i.nrf_uart_txrx_pins_set) for nrf_uart_txrx_pins_set
    nrf_drv_uart.o(i.apply_config) refers to nrf_drv_uart.o(i.nrf_uart_hwfc_pins_set) for nrf_uart_hwfc_pins_set
    nrf_drv_uart.o(i.nrf_drv_uart_errorsrc_get) refers to nrf_drv_uart.o(i.nrf_uart_event_clear) for nrf_uart_event_clear
    nrf_drv_uart.o(i.nrf_drv_uart_errorsrc_get) refers to nrf_drv_uart.o(i.nrf_uart_errorsrc_get_and_clear) for nrf_uart_errorsrc_get_and_clear
    nrf_drv_uart.o(i.nrf_drv_uart_init) refers to nrf_drv_uart.o(i.apply_config) for apply_config
    nrf_drv_uart.o(i.nrf_drv_uart_init) refers to nrf_drv_uart.o(i.nrf_uart_int_enable) for nrf_uart_int_enable
    nrf_drv_uart.o(i.nrf_drv_uart_init) refers to nrf_drv_common.o(i.nrf_drv_common_irq_enable) for nrf_drv_common_irq_enable
    nrf_drv_uart.o(i.nrf_drv_uart_init) refers to nrf_drv_uart.o(.bss) for m_cb
    nrf_drv_uart.o(i.nrf_drv_uart_init) refers to nrf_drv_uart.o(.constdata) for m_default_config
    nrf_drv_uart.o(i.nrf_drv_uart_rx) refers to nrf_drv_uart.o(i.rx_enable) for rx_enable
    nrf_drv_uart.o(i.nrf_drv_uart_rx) refers to nrf_drv_uart.o(i.nrf_uart_event_check) for nrf_uart_event_check
    nrf_drv_uart.o(i.nrf_drv_uart_rx) refers to nrf_drv_uart.o(i.rx_byte) for rx_byte
    nrf_drv_uart.o(i.nrf_drv_uart_rx) refers to nrf_drv_uart.o(i.nrf_uart_event_clear) for nrf_uart_event_clear
    nrf_drv_uart.o(i.nrf_drv_uart_rx) refers to nrf_drv_uart.o(i.nrf_uart_task_trigger) for nrf_uart_task_trigger
    nrf_drv_uart.o(i.nrf_drv_uart_rx) refers to nrf_drv_uart.o(i.nrf_uart_int_enable) for nrf_uart_int_enable
    nrf_drv_uart.o(i.nrf_drv_uart_rx) refers to nrf_drv_uart.o(.bss) for m_cb
    nrf_drv_uart.o(i.nrf_drv_uart_rx_abort) refers to nrf_drv_uart.o(i.nrf_uart_int_disable) for nrf_uart_int_disable
    nrf_drv_uart.o(i.nrf_drv_uart_rx_abort) refers to nrf_drv_uart.o(i.nrf_uart_task_trigger) for nrf_uart_task_trigger
    nrf_drv_uart.o(i.nrf_drv_uart_rx_disable) refers to nrf_drv_uart.o(i.nrf_uart_task_trigger) for nrf_uart_task_trigger
    nrf_drv_uart.o(i.nrf_drv_uart_rx_disable) refers to nrf_drv_uart.o(.bss) for m_cb
    nrf_drv_uart.o(i.nrf_drv_uart_rx_enable) refers to nrf_drv_uart.o(i.rx_enable) for rx_enable
    nrf_drv_uart.o(i.nrf_drv_uart_rx_enable) refers to nrf_drv_uart.o(.bss) for m_cb
    nrf_drv_uart.o(i.nrf_drv_uart_tx) refers to nrf_drv_uart.o(i.nrf_uart_event_clear) for nrf_uart_event_clear
    nrf_drv_uart.o(i.nrf_drv_uart_tx) refers to nrf_drv_uart.o(i.nrf_uart_task_trigger) for nrf_uart_task_trigger
    nrf_drv_uart.o(i.nrf_drv_uart_tx) refers to nrf_drv_uart.o(i.tx_byte) for tx_byte
    nrf_drv_uart.o(i.nrf_drv_uart_tx) refers to nrf_drv_uart.o(i.nrf_uart_event_check) for nrf_uart_event_check
    nrf_drv_uart.o(i.nrf_drv_uart_tx) refers to nrf_drv_uart.o(.bss) for m_cb
    nrf_drv_uart.o(i.nrf_drv_uart_tx_abort) refers to nrf_drv_uart.o(i.nrf_uart_task_trigger) for nrf_uart_task_trigger
    nrf_drv_uart.o(i.nrf_drv_uart_tx_abort) refers to nrf_drv_uart.o(i.tx_done_event) for tx_done_event
    nrf_drv_uart.o(i.nrf_drv_uart_tx_abort) refers to nrf_drv_uart.o(.bss) for m_cb
    nrf_drv_uart.o(i.nrf_drv_uart_uninit) refers to nrf_drv_uart.o(i.nrf_uart_int_disable) for nrf_uart_int_disable
    nrf_drv_uart.o(i.nrf_drv_uart_uninit) refers to nrf_drv_uart.o(i.pins_to_default) for pins_to_default
    nrf_drv_uart.o(i.nrf_drv_uart_uninit) refers to nrf_drv_uart.o(.bss) for m_cb
    nrf_drv_uart.o(i.nrf_gpio_cfg_default) refers to nrf_drv_uart.o(i.nrf_gpio_cfg) for nrf_gpio_cfg
    nrf_drv_uart.o(i.nrf_gpio_cfg_input) refers to nrf_drv_uart.o(i.nrf_gpio_cfg) for nrf_gpio_cfg
    nrf_drv_uart.o(i.nrf_gpio_cfg_output) refers to nrf_drv_uart.o(i.nrf_gpio_cfg) for nrf_gpio_cfg
    nrf_drv_uart.o(i.pins_to_default) refers to nrf_drv_uart.o(i.nrf_uart_txrx_pins_set) for nrf_uart_txrx_pins_set
    nrf_drv_uart.o(i.pins_to_default) refers to nrf_drv_uart.o(i.nrf_uart_hwfc_pins_set) for nrf_uart_hwfc_pins_set
    nrf_drv_uart.o(i.pins_to_default) refers to nrf_drv_uart.o(i.nrf_gpio_cfg_default) for nrf_gpio_cfg_default
    nrf_drv_uart.o(i.rx_byte) refers to nrf_drv_uart.o(i.nrf_uart_event_clear) for nrf_uart_event_clear
    nrf_drv_uart.o(i.rx_byte) refers to nrf_drv_uart.o(.bss) for m_cb
    nrf_drv_uart.o(i.rx_done_event) refers to nrf_drv_uart.o(.bss) for m_cb
    nrf_drv_uart.o(i.rx_enable) refers to nrf_drv_uart.o(i.nrf_uart_event_clear) for nrf_uart_event_clear
    nrf_drv_uart.o(i.rx_enable) refers to nrf_drv_uart.o(i.nrf_uart_task_trigger) for nrf_uart_task_trigger
    nrf_drv_uart.o(i.tx_byte) refers to nrf_drv_uart.o(i.nrf_uart_event_clear) for nrf_uart_event_clear
    nrf_drv_uart.o(i.tx_byte) refers to nrf_drv_uart.o(.bss) for m_cb
    nrf_drv_uart.o(i.tx_done_event) refers to nrf_drv_uart.o(.bss) for m_cb
    nrf_drv_wdt.o(i.WDT_IRQHandler) refers to nrf_drv_wdt.o(.data) for m_wdt_event_handler
    nrf_drv_wdt.o(i.nrf_drv_wdt_channel_alloc) refers to nrf_drv_wdt.o(i.current_int_priority_get) for current_int_priority_get
    nrf_drv_wdt.o(i.nrf_drv_wdt_channel_alloc) refers to app_error.o(i.app_error_handler) for app_error_handler
    nrf_drv_wdt.o(i.nrf_drv_wdt_channel_alloc) refers to nrf_drv_wdt.o(.data) for m_alloc_index
    nrf_drv_wdt.o(i.nrf_drv_wdt_channel_feed) refers to nrf_drv_wdt.o(i.nrf_wdt_reload_request_set) for nrf_wdt_reload_request_set
    nrf_drv_wdt.o(i.nrf_drv_wdt_enable) refers to nrf_drv_wdt.o(.data) for m_state
    nrf_drv_wdt.o(i.nrf_drv_wdt_feed) refers to nrf_drv_wdt.o(i.nrf_wdt_reload_request_set) for nrf_wdt_reload_request_set
    nrf_drv_wdt.o(i.nrf_drv_wdt_feed) refers to nrf_drv_wdt.o(.data) for m_alloc_index
    nrf_drv_wdt.o(i.nrf_drv_wdt_init) refers to aeabi_sdiv.o(.text) for __aeabi_uidivmod
    nrf_drv_wdt.o(i.nrf_drv_wdt_init) refers to nrf_drv_common.o(i.nrf_drv_common_irq_enable) for nrf_drv_common_irq_enable
    nrf_drv_wdt.o(i.nrf_drv_wdt_init) refers to nrf_drv_wdt.o(.data) for m_wdt_event_handler
    nrf_drv_wdt.o(i.nrf_drv_wdt_init) refers to nrf_drv_wdt.o(.constdata) for m_default_config
    pstorage.o(i.app_notify) refers to pstorage.o(.bss) for m_app_table
    pstorage.o(i.app_notify) refers to pstorage.o(.data) for m_app_data_size
    pstorage.o(i.app_notify_error_state_transit) refers to pstorage.o(i.app_notify) for app_notify
    pstorage.o(i.app_notify_error_state_transit) refers to pstorage.o(i.sm_state_change) for sm_state_change
    pstorage.o(i.app_notify_error_state_transit) refers to pstorage.o(.bss) for m_cmd_queue
    pstorage.o(i.clear_operation_execute) refers to pstorage.o(i.pstorage_flash_page_size) for pstorage_flash_page_size
    pstorage.o(i.clear_operation_execute) refers to aeabi_sdiv.o(.text) for __aeabi_uidivmod
    pstorage.o(i.clear_operation_execute) refers to pstorage.o(i.sm_state_change) for sm_state_change
    pstorage.o(i.clear_operation_execute) refers to pstorage.o(i.tail_word_size_calculate) for tail_word_size_calculate
    pstorage.o(i.clear_operation_execute) refers to pstorage.o(.bss) for m_cmd_queue
    pstorage.o(i.clear_operation_execute) refers to pstorage.o(.data) for m_tail_word_size
    pstorage.o(i.clear_post_processing_run) refers to pstorage.o(i.command_end_procedure_run) for command_end_procedure_run
    pstorage.o(i.clear_post_processing_run) refers to pstorage.o(i.store_operation_execute) for store_operation_execute
    pstorage.o(i.clear_post_processing_run) refers to pstorage.o(.bss) for m_cmd_queue
    pstorage.o(i.cmd_process) refers to pstorage.o(i.store_operation_execute) for store_operation_execute
    pstorage.o(i.cmd_process) refers to pstorage.o(i.clear_operation_execute) for clear_operation_execute
    pstorage.o(i.cmd_process) refers to pstorage.o(i.update_operation_execute) for update_operation_execute
    pstorage.o(i.cmd_process) refers to pstorage.o(.bss) for m_cmd_queue
    pstorage.o(i.cmd_process) refers to pstorage.o(.data) for m_app_data_size
    pstorage.o(i.cmd_queue_dequeue) refers to pstorage.o(i.cmd_process) for cmd_process
    pstorage.o(i.cmd_queue_dequeue) refers to pstorage.o(.bss) for m_cmd_queue
    pstorage.o(i.cmd_queue_element_init) refers to pstorage.o(.bss) for m_cmd_queue
    pstorage.o(i.cmd_queue_enqueue) refers to pstorage.o(i.cmd_process) for cmd_process
    pstorage.o(i.cmd_queue_enqueue) refers to pstorage.o(.bss) for m_cmd_queue
    pstorage.o(i.cmd_queue_enqueue) refers to pstorage.o(.data) for m_state
    pstorage.o(i.cmd_queue_init) refers to pstorage.o(i.cmd_queue_element_init) for cmd_queue_element_init
    pstorage.o(i.cmd_queue_init) refers to pstorage.o(.bss) for m_cmd_queue
    pstorage.o(i.command_end_procedure_run) refers to pstorage.o(i.app_notify) for app_notify
    pstorage.o(i.command_end_procedure_run) refers to pstorage.o(i.command_queue_element_consume) for command_queue_element_consume
    pstorage.o(i.command_end_procedure_run) refers to pstorage.o(i.sm_state_change) for sm_state_change
    pstorage.o(i.command_end_procedure_run) refers to pstorage.o(.bss) for m_cmd_queue
    pstorage.o(i.command_queue_element_consume) refers to pstorage.o(i.cmd_queue_element_init) for cmd_queue_element_init
    pstorage.o(i.command_queue_element_consume) refers to pstorage.o(.bss) for m_cmd_queue
    pstorage.o(i.data_page_erase_state_run) refers to pstorage.o(i.swap_sub_state_state_change) for swap_sub_state_state_change
    pstorage.o(i.data_page_erase_state_run) refers to pstorage.o(i.is_page_erase_required) for is_page_erase_required
    pstorage.o(i.data_page_erase_state_run) refers to pstorage.o(i.swap_sub_sm_exit_action_run) for swap_sub_sm_exit_action_run
    pstorage.o(i.data_page_erase_state_run) refers to pstorage.o(i.swap_sub_state_err_busy_process) for swap_sub_state_err_busy_process
    pstorage.o(i.data_page_erase_state_run) refers to pstorage.o(.data) for m_flags
    pstorage.o(i.data_to_swap_write_state_run) refers to pstorage.o(i.swap_sub_state_state_change) for swap_sub_state_state_change
    pstorage.o(i.data_to_swap_write_state_run) refers to pstorage.o(i.swap_sub_state_err_busy_process) for swap_sub_state_err_busy_process
    pstorage.o(i.data_to_swap_write_state_run) refers to pstorage.o(.data) for m_flags
    pstorage.o(i.erase_sub_state_sm_run) refers to pstorage.o(i.is_page_erase_required) for is_page_erase_required
    pstorage.o(i.erase_sub_state_sm_run) refers to pstorage.o(i.clear_post_processing_run) for clear_post_processing_run
    pstorage.o(i.erase_sub_state_sm_run) refers to pstorage.o(i.sm_state_change) for sm_state_change
    pstorage.o(i.erase_sub_state_sm_run) refers to pstorage.o(i.main_state_err_busy_process) for main_state_err_busy_process
    pstorage.o(i.erase_sub_state_sm_run) refers to pstorage.o(.data) for m_flags
    pstorage.o(i.flash_api_err_code_process) refers to pstorage.o(i.app_notify_error_state_transit) for app_notify_error_state_transit
    pstorage.o(i.flash_api_err_code_process) refers to pstorage.o(.data) for m_flags
    pstorage.o(i.flash_operation_failure_run) refers to pstorage.o(i.sm_state_change) for sm_state_change
    pstorage.o(i.flash_operation_failure_run) refers to pstorage.o(i.swap_sub_state_state_change) for swap_sub_state_state_change
    pstorage.o(i.flash_operation_failure_run) refers to pstorage.o(i.app_notify_error_state_transit) for app_notify_error_state_transit
    pstorage.o(i.flash_operation_failure_run) refers to pstorage.o(.data) for m_num_of_command_retries
    pstorage.o(i.flash_operation_success_run) refers to pstorage.o(i.store_sub_state_sm_run) for store_sub_state_sm_run
    pstorage.o(i.flash_operation_success_run) refers to pstorage.o(i.erase_sub_state_sm_run) for erase_sub_state_sm_run
    pstorage.o(i.flash_operation_success_run) refers to pstorage.o(i.swap_sub_state_sm_run) for swap_sub_state_sm_run
    pstorage.o(i.flash_operation_success_run) refers to pstorage.o(.data) for m_state
    pstorage.o(i.flash_page_erase) refers to pstorage.o(i.flash_api_err_code_process) for flash_api_err_code_process
    pstorage.o(i.flash_write) refers to pstorage.o(i.flash_api_err_code_process) for flash_api_err_code_process
    pstorage.o(i.head_restore_state_run) refers to pstorage.o(i.is_tail_data_page_swap_required) for is_tail_data_page_swap_required
    pstorage.o(i.head_restore_state_run) refers to pstorage.o(i.swap_sub_state_state_change) for swap_sub_state_state_change
    pstorage.o(i.head_restore_state_run) refers to pstorage.o(i.is_page_erase_required) for is_page_erase_required
    pstorage.o(i.head_restore_state_run) refers to pstorage.o(i.swap_sub_sm_exit_action_run) for swap_sub_sm_exit_action_run
    pstorage.o(i.head_restore_state_run) refers to pstorage.o(i.swap_sub_state_err_busy_process) for swap_sub_state_err_busy_process
    pstorage.o(i.head_restore_state_run) refers to pstorage.o(.data) for m_flags
    pstorage.o(i.is_page_erase_required) refers to pstorage.o(i.pstorage_flash_page_size) for pstorage_flash_page_size
    pstorage.o(i.is_page_erase_required) refers to aeabi_sdiv.o(.text) for __aeabi_uidivmod
    pstorage.o(i.is_page_erase_required) refers to pstorage.o(.bss) for m_cmd_queue
    pstorage.o(i.is_page_erase_required) refers to pstorage.o(.data) for m_current_page_id
    pstorage.o(i.is_tail_data_page_swap_required) refers to pstorage.o(i.pstorage_flash_page_size) for pstorage_flash_page_size
    pstorage.o(i.is_tail_data_page_swap_required) refers to aeabi_sdiv.o(.text) for __aeabi_uidivmod
    pstorage.o(i.is_tail_data_page_swap_required) refers to pstorage.o(.bss) for m_cmd_queue
    pstorage.o(i.is_tail_data_page_swap_required) refers to pstorage.o(.data) for m_tail_word_size
    pstorage.o(i.main_state_err_busy_process) refers to pstorage.o(i.sm_state_change) for sm_state_change
    pstorage.o(i.main_state_err_busy_process) refers to pstorage.o(.data) for m_flags
    pstorage.o(i.pstorage_access_status_get) refers to pstorage.o(.data) for m_flags
    pstorage.o(i.pstorage_access_status_get) refers to pstorage.o(.bss) for m_cmd_queue
    pstorage.o(i.pstorage_block_identifier_get) refers to pstorage.o(.data) for m_flags
    pstorage.o(i.pstorage_block_identifier_get) refers to pstorage.o(.bss) for m_app_table
    pstorage.o(i.pstorage_clear) refers to pstorage.o(i.is_word_aligned) for is_word_aligned
    pstorage.o(i.pstorage_clear) refers to aeabi_sdiv.o(.text) for __aeabi_uidivmod
    pstorage.o(i.pstorage_clear) refers to pstorage.o(i.cmd_queue_enqueue) for cmd_queue_enqueue
    pstorage.o(i.pstorage_clear) refers to pstorage.o(.data) for m_flags
    pstorage.o(i.pstorage_clear) refers to pstorage.o(.bss) for m_app_table
    pstorage.o(i.pstorage_flash_page_end) refers to pstorage.o(i.pstorage_flash_page_size) for pstorage_flash_page_size
    pstorage.o(i.pstorage_flash_page_end) refers to aeabi_sdiv.o(.text) for __aeabi_uidivmod
    pstorage.o(i.pstorage_init) refers to pstorage.o(i.cmd_queue_init) for cmd_queue_init
    pstorage.o(i.pstorage_init) refers to pstorage.o(i.pstorage_flash_page_end) for pstorage_flash_page_end
    pstorage.o(i.pstorage_init) refers to pstorage.o(i.pstorage_flash_page_size) for pstorage_flash_page_size
    pstorage.o(i.pstorage_init) refers to pstorage.o(.data) for m_next_app_instance
    pstorage.o(i.pstorage_init) refers to pstorage.o(.bss) for m_app_table
    pstorage.o(i.pstorage_load) refers to pstorage.o(i.is_word_aligned) for is_word_aligned
    pstorage.o(i.pstorage_load) refers to rt_memcpy.o(.text) for __aeabi_memcpy
    pstorage.o(i.pstorage_load) refers to pstorage.o(.data) for m_flags
    pstorage.o(i.pstorage_load) refers to pstorage.o(.bss) for m_app_table
    pstorage.o(i.pstorage_register) refers to pstorage.o(i.pstorage_flash_page_size) for pstorage_flash_page_size
    pstorage.o(i.pstorage_register) refers to pstorage.o(i.pstorage_flash_page_end) for pstorage_flash_page_end
    pstorage.o(i.pstorage_register) refers to aeabi_sdiv.o(.text) for __aeabi_idivmod
    pstorage.o(i.pstorage_register) refers to pstorage.o(.data) for m_flags
    pstorage.o(i.pstorage_register) refers to pstorage.o(.bss) for m_app_table
    pstorage.o(i.pstorage_store) refers to pstorage.o(i.is_word_aligned) for is_word_aligned
    pstorage.o(i.pstorage_store) refers to pstorage.o(i.cmd_queue_enqueue) for cmd_queue_enqueue
    pstorage.o(i.pstorage_store) refers to pstorage.o(.data) for m_flags
    pstorage.o(i.pstorage_store) refers to pstorage.o(.bss) for m_app_table
    pstorage.o(i.pstorage_sys_event_handler) refers to pstorage.o(i.flash_operation_success_run) for flash_operation_success_run
    pstorage.o(i.pstorage_sys_event_handler) refers to pstorage.o(i.flash_operation_failure_run) for flash_operation_failure_run
    pstorage.o(i.pstorage_sys_event_handler) refers to pstorage.o(.data) for m_state
    pstorage.o(i.pstorage_update) refers to pstorage.o(i.is_word_aligned) for is_word_aligned
    pstorage.o(i.pstorage_update) refers to pstorage.o(i.cmd_queue_enqueue) for cmd_queue_enqueue
    pstorage.o(i.pstorage_update) refers to pstorage.o(.data) for m_flags
    pstorage.o(i.pstorage_update) refers to pstorage.o(.bss) for m_app_table
    pstorage.o(i.sm_state_change) refers to pstorage.o(i.state_entry_action_run) for state_entry_action_run
    pstorage.o(i.sm_state_change) refers to pstorage.o(.data) for m_state
    pstorage.o(i.state_data_erase_entry_run) refers to pstorage.o(i.flash_page_erase) for flash_page_erase
    pstorage.o(i.state_data_erase_entry_run) refers to pstorage.o(.data) for m_current_page_id
    pstorage.o(i.state_data_erase_swap_entry_run) refers to pstorage.o(i.pstorage_flash_page_size) for pstorage_flash_page_size
    pstorage.o(i.state_data_erase_swap_entry_run) refers to aeabi_sdiv.o(.text) for __aeabi_uidivmod
    pstorage.o(i.state_data_erase_swap_entry_run) refers to pstorage.o(i.swap_sub_state_state_change) for swap_sub_state_state_change
    pstorage.o(i.state_data_erase_swap_entry_run) refers to pstorage.o(.data) for m_flags
    pstorage.o(i.state_data_erase_swap_entry_run) refers to pstorage.o(.bss) for m_cmd_queue
    pstorage.o(i.state_entry_action_run) refers to pstorage.o(i.state_idle_entry_run) for state_idle_entry_run
    pstorage.o(i.state_entry_action_run) refers to pstorage.o(i.state_store_entry_run) for state_store_entry_run
    pstorage.o(i.state_entry_action_run) refers to pstorage.o(i.state_data_erase_swap_entry_run) for state_data_erase_swap_entry_run
    pstorage.o(i.state_entry_action_run) refers to pstorage.o(i.state_data_erase_entry_run) for state_data_erase_entry_run
    pstorage.o(i.state_entry_action_run) refers to pstorage.o(.data) for m_state
    pstorage.o(i.state_erase_data_page_entry_run) refers to pstorage.o(i.flash_page_erase) for flash_page_erase
    pstorage.o(i.state_erase_data_page_entry_run) refers to pstorage.o(.data) for m_current_page_id
    pstorage.o(i.state_idle_entry_run) refers to pstorage.o(i.cmd_queue_dequeue) for cmd_queue_dequeue
    pstorage.o(i.state_idle_entry_run) refers to pstorage.o(.data) for m_num_of_command_retries
    pstorage.o(i.state_restore_head_entry_run) refers to pstorage.o(i.pstorage_flash_page_end) for pstorage_flash_page_end
    pstorage.o(i.state_restore_head_entry_run) refers to pstorage.o(i.pstorage_flash_page_size) for pstorage_flash_page_size
    pstorage.o(i.state_restore_head_entry_run) refers to pstorage.o(i.flash_write) for flash_write
    pstorage.o(i.state_restore_head_entry_run) refers to pstorage.o(.data) for m_current_page_id
    pstorage.o(i.state_restore_tail_entry_run) refers to pstorage.o(i.pstorage_flash_page_size) for pstorage_flash_page_size
    pstorage.o(i.state_restore_tail_entry_run) refers to aeabi_sdiv.o(.text) for __aeabi_uidivmod
    pstorage.o(i.state_restore_tail_entry_run) refers to pstorage.o(i.pstorage_flash_page_end) for pstorage_flash_page_end
    pstorage.o(i.state_restore_tail_entry_run) refers to pstorage.o(i.flash_write) for flash_write
    pstorage.o(i.state_restore_tail_entry_run) refers to pstorage.o(.bss) for m_cmd_queue
    pstorage.o(i.state_restore_tail_entry_run) refers to pstorage.o(.data) for m_tail_word_size
    pstorage.o(i.state_store_entry_run) refers to pstorage.o(i.store_cmd_flash_write_execute) for store_cmd_flash_write_execute
    pstorage.o(i.state_swap_erase_entry_run) refers to pstorage.o(i.pstorage_flash_page_size) for pstorage_flash_page_size
    pstorage.o(i.state_swap_erase_entry_run) refers to pstorage.o(i.pstorage_flash_page_end) for pstorage_flash_page_end
    pstorage.o(i.state_swap_erase_entry_run) refers to aeabi_sdiv.o(.text) for __aeabi_uidivmod
    pstorage.o(i.state_swap_erase_entry_run) refers to pstorage.o(i.flash_page_erase) for flash_page_erase
    pstorage.o(i.state_write_data_swap_entry_run) refers to pstorage.o(i.pstorage_flash_page_size) for pstorage_flash_page_size
    pstorage.o(i.state_write_data_swap_entry_run) refers to pstorage.o(i.pstorage_flash_page_end) for pstorage_flash_page_end
    pstorage.o(i.state_write_data_swap_entry_run) refers to pstorage.o(i.flash_write) for flash_write
    pstorage.o(i.state_write_data_swap_entry_run) refers to pstorage.o(.data) for m_current_page_id
    pstorage.o(i.store_cmd_flash_write_execute) refers to pstorage.o(i.pstorage_flash_page_size) for pstorage_flash_page_size
    pstorage.o(i.store_cmd_flash_write_execute) refers to pstorage.o(i.flash_write) for flash_write
    pstorage.o(i.store_cmd_flash_write_execute) refers to pstorage.o(.bss) for m_cmd_queue
    pstorage.o(i.store_cmd_flash_write_execute) refers to pstorage.o(.data) for m_num_of_bytes_written
    pstorage.o(i.store_operation_execute) refers to pstorage.o(i.sm_state_change) for sm_state_change
    pstorage.o(i.store_sub_state_sm_run) refers to pstorage.o(i.command_end_procedure_run) for command_end_procedure_run
    pstorage.o(i.store_sub_state_sm_run) refers to pstorage.o(i.store_cmd_flash_write_execute) for store_cmd_flash_write_execute
    pstorage.o(i.store_sub_state_sm_run) refers to pstorage.o(i.main_state_err_busy_process) for main_state_err_busy_process
    pstorage.o(i.store_sub_state_sm_run) refers to pstorage.o(.data) for m_flags
    pstorage.o(i.store_sub_state_sm_run) refers to pstorage.o(.bss) for m_cmd_queue
    pstorage.o(i.swap_erase_state_run) refers to pstorage.o(i.swap_sub_state_state_change) for swap_sub_state_state_change
    pstorage.o(i.swap_erase_state_run) refers to pstorage.o(i.swap_sub_state_err_busy_process) for swap_sub_state_err_busy_process
    pstorage.o(i.swap_erase_state_run) refers to pstorage.o(.data) for m_flags
    pstorage.o(i.swap_sub_sm_exit_action_run) refers to pstorage.o(i.clear_post_processing_run) for clear_post_processing_run
    pstorage.o(i.swap_sub_state_entry_action_run) refers to pstorage.o(.data) for m_swap_sub_state
    pstorage.o(i.swap_sub_state_entry_action_run) refers to pstorage.o(.constdata) for swap_sub_state_sm_lut
    pstorage.o(i.swap_sub_state_err_busy_process) refers to pstorage.o(i.swap_sub_state_state_change) for swap_sub_state_state_change
    pstorage.o(i.swap_sub_state_err_busy_process) refers to pstorage.o(.data) for m_flags
    pstorage.o(i.swap_sub_state_sm_run) refers to pstorage.o(.data) for m_swap_sub_state
    pstorage.o(i.swap_sub_state_sm_run) refers to pstorage.o(.constdata) for swap_sub_state_sm_lut
    pstorage.o(i.swap_sub_state_state_change) refers to pstorage.o(i.swap_sub_state_entry_action_run) for swap_sub_state_entry_action_run
    pstorage.o(i.swap_sub_state_state_change) refers to pstorage.o(.data) for m_swap_sub_state
    pstorage.o(i.tail_restore_state_run) refers to pstorage.o(i.swap_sub_sm_exit_action_run) for swap_sub_sm_exit_action_run
    pstorage.o(i.tail_restore_state_run) refers to pstorage.o(i.swap_sub_state_err_busy_process) for swap_sub_state_err_busy_process
    pstorage.o(i.tail_restore_state_run) refers to pstorage.o(.data) for m_flags
    pstorage.o(i.tail_word_size_calculate) refers to pstorage.o(i.pstorage_flash_page_size) for pstorage_flash_page_size
    pstorage.o(i.tail_word_size_calculate) refers to aeabi_sdiv.o(.text) for __aeabi_idivmod
    pstorage.o(i.tail_word_size_calculate) refers to pstorage.o(.data) for m_tail_word_size
    pstorage.o(i.update_operation_execute) refers to pstorage.o(i.clear_operation_execute) for clear_operation_execute
    pstorage.o(.constdata) refers to pstorage.o(i.state_swap_erase_entry_run) for state_swap_erase_entry_run
    pstorage.o(.constdata) refers to pstorage.o(i.state_write_data_swap_entry_run) for state_write_data_swap_entry_run
    pstorage.o(.constdata) refers to pstorage.o(i.state_erase_data_page_entry_run) for state_erase_data_page_entry_run
    pstorage.o(.constdata) refers to pstorage.o(i.state_restore_tail_entry_run) for state_restore_tail_entry_run
    pstorage.o(.constdata) refers to pstorage.o(i.state_restore_head_entry_run) for state_restore_head_entry_run
    pstorage.o(.constdata) refers to pstorage.o(i.swap_erase_state_run) for swap_erase_state_run
    pstorage.o(.constdata) refers to pstorage.o(i.data_to_swap_write_state_run) for data_to_swap_write_state_run
    pstorage.o(.constdata) refers to pstorage.o(i.data_page_erase_state_run) for data_page_erase_state_run
    pstorage.o(.constdata) refers to pstorage.o(i.tail_restore_state_run) for tail_restore_state_run
    pstorage.o(.constdata) refers to pstorage.o(i.head_restore_state_run) for head_restore_state_run
    twi_hw_master.o(i.my_delay_ms) refers to twi_hw_master.o(.emb_text) for __asm___15_twi_hw_master_c_959ec897__nrf_delay_us
    twi_hw_master.o(i.my_twi_read) refers to twi_hw_master.o(i.twi_master_transfer) for twi_master_transfer
    twi_hw_master.o(i.my_twi_read) refers to twi_hw_master.o(.data) for temp_reg
    twi_hw_master.o(i.my_twi_write) refers to twi_hw_master.o(i.twi_master_transfer) for twi_master_transfer
    twi_hw_master.o(i.my_twi_write) refers to twi_hw_master.o(.bss) for temp_buf
    twi_hw_master.o(i.twi_master_clear_bus) refers to twi_hw_master.o(.emb_text) for __asm___15_twi_hw_master_c_959ec897__nrf_delay_us
    twi_hw_master.o(i.twi_master_en) refers to twi_hw_master.o(i.twi_master_clear_bus) for twi_master_clear_bus
    twi_hw_master.o(i.twi_master_init) refers to twi_hw_master.o(i.twi_master_clear_bus) for twi_master_clear_bus
    twi_hw_master.o(i.twi_master_read) refers to twi_hw_master.o(.emb_text) for __asm___15_twi_hw_master_c_959ec897__nrf_delay_us
    twi_hw_master.o(i.twi_master_read) refers to twi_hw_master.o(i.twi_master_init) for twi_master_init
    twi_hw_master.o(i.twi_master_transfer) refers to twi_hw_master.o(i.twi_master_clear_bus) for twi_master_clear_bus
    twi_hw_master.o(i.twi_master_transfer) refers to twi_hw_master.o(i.twi_master_read) for twi_master_read
    twi_hw_master.o(i.twi_master_transfer) refers to twi_hw_master.o(i.twi_master_write) for twi_master_write
    twi_hw_master.o(i.twi_master_write) refers to twi_hw_master.o(.emb_text) for __asm___15_twi_hw_master_c_959ec897__nrf_delay_us
    twi_hw_master.o(i.twi_master_write) refers to twi_hw_master.o(i.twi_master_init) for twi_master_init
    app_fifo.o(i.app_fifo_get) refers to app_fifo.o(i.fifo_length) for fifo_length
    app_fifo.o(i.app_fifo_get) refers to app_fifo.o(i.fifo_get) for fifo_get
    app_fifo.o(i.app_fifo_put) refers to app_fifo.o(i.fifo_length) for fifo_length
    app_fifo.o(i.app_fifo_put) refers to app_fifo.o(i.fifo_put) for fifo_put
    app_fifo.o(i.app_fifo_read) refers to app_fifo.o(i.fifo_length) for fifo_length
    app_fifo.o(i.app_fifo_read) refers to app_fifo.o(i.fifo_get) for fifo_get
    app_fifo.o(i.app_fifo_write) refers to app_fifo.o(i.fifo_length) for fifo_length
    app_fifo.o(i.app_fifo_write) refers to app_fifo.o(i.fifo_put) for fifo_put
    app_scheduler.o(i.app_sched_event_get) refers to app_scheduler.o(i.next_index) for next_index
    app_scheduler.o(i.app_sched_event_get) refers to app_scheduler.o(.data) for m_queue_start_index
    app_scheduler.o(i.app_sched_event_put) refers to app_scheduler.o(i.current_int_priority_get) for current_int_priority_get
    app_scheduler.o(i.app_sched_event_put) refers to app_error.o(i.app_error_handler) for app_error_handler
    app_scheduler.o(i.app_sched_event_put) refers to app_scheduler.o(i.next_index) for next_index
    app_scheduler.o(i.app_sched_event_put) refers to rt_memcpy.o(.text) for __aeabi_memcpy
    app_scheduler.o(i.app_sched_event_put) refers to app_scheduler.o(.data) for m_queue_event_size
    app_scheduler.o(i.app_sched_execute) refers to app_scheduler.o(i.app_sched_event_get) for app_sched_event_get
    app_scheduler.o(i.app_sched_init) refers to app_scheduler.o(.data) for m_queue_event_headers
    app_scheduler.o(i.next_index) refers to app_scheduler.o(.data) for m_queue_size
    app_timer.o(i.RTC1_IRQHandler) refers to app_timer.o(i.timer_timeouts_check) for timer_timeouts_check
    app_timer.o(i.SWI0_IRQHandler) refers to app_timer.o(i.timer_list_handler) for timer_list_handler
    app_timer.o(i.app_timer_cnt_diff_compute) refers to app_timer.o(i.ticks_diff_get) for ticks_diff_get
    app_timer.o(i.app_timer_cnt_get) refers to app_timer.o(i.rtc1_counter_get) for rtc1_counter_get
    app_timer.o(i.app_timer_create) refers to app_timer.o(.data) for mp_users
    app_timer.o(i.app_timer_init) refers to app_timer.o(i.rtc1_stop) for rtc1_stop
    app_timer.o(i.app_timer_init) refers to app_timer.o(i.NVIC_ClearPendingIRQ) for NVIC_ClearPendingIRQ
    app_timer.o(i.app_timer_init) refers to app_timer.o(i.NVIC_SetPriority) for NVIC_SetPriority
    app_timer.o(i.app_timer_init) refers to app_timer.o(i.NVIC_EnableIRQ) for NVIC_EnableIRQ
    app_timer.o(i.app_timer_init) refers to app_timer.o(i.rtc1_init) for rtc1_init
    app_timer.o(i.app_timer_init) refers to app_timer.o(i.rtc1_counter_get) for rtc1_counter_get
    app_timer.o(i.app_timer_init) refers to app_timer.o(.data) for mp_users
    app_timer.o(i.app_timer_start) refers to app_timer.o(i.user_id_get) for user_id_get
    app_timer.o(i.app_timer_start) refers to app_timer.o(i.timer_start_op_schedule) for timer_start_op_schedule
    app_timer.o(i.app_timer_start) refers to app_timer.o(.data) for mp_users
    app_timer.o(i.app_timer_stop) refers to app_timer.o(i.user_id_get) for user_id_get
    app_timer.o(i.app_timer_stop) refers to app_timer.o(i.timer_stop_op_schedule) for timer_stop_op_schedule
    app_timer.o(i.app_timer_stop) refers to app_timer.o(.data) for mp_users
    app_timer.o(i.app_timer_stop_all) refers to app_timer.o(i.user_id_get) for user_id_get
    app_timer.o(i.app_timer_stop_all) refers to app_timer.o(i.timer_stop_all_op_schedule) for timer_stop_all_op_schedule
    app_timer.o(i.app_timer_stop_all) refers to app_timer.o(.data) for mp_users
    app_timer.o(i.compare_reg_update) refers to app_timer.o(i.rtc1_counter_get) for rtc1_counter_get
    app_timer.o(i.compare_reg_update) refers to app_timer.o(i.ticks_diff_get) for ticks_diff_get
    app_timer.o(i.compare_reg_update) refers to app_timer.o(i.rtc1_start) for rtc1_start
    app_timer.o(i.compare_reg_update) refers to app_timer.o(i.rtc1_compare0_set) for rtc1_compare0_set
    app_timer.o(i.compare_reg_update) refers to app_timer.o(.emb_text) for __asm___11_app_timer_c_cd27f9c3__nrf_delay_us
    app_timer.o(i.compare_reg_update) refers to app_timer.o(i.timer_timeouts_check_sched) for timer_timeouts_check_sched
    app_timer.o(i.compare_reg_update) refers to app_timer.o(i.rtc1_stop) for rtc1_stop
    app_timer.o(i.compare_reg_update) refers to app_timer.o(.data) for mp_timer_id_head
    app_timer.o(i.elapsed_ticks_acquire) refers to app_timer.o(.data) for m_ticks_elapsed_q_read_ind
    app_timer.o(i.expired_timers_handler) refers to app_timer.o(.data) for mp_timer_id_head
    app_timer.o(i.list_deletions_handler) refers to app_timer.o(i.timer_list_remove) for timer_list_remove
    app_timer.o(i.list_deletions_handler) refers to app_timer.o(.data) for mp_timer_id_head
    app_timer.o(i.list_insertions_handler) refers to app_timer.o(i.ticks_diff_get) for ticks_diff_get
    app_timer.o(i.list_insertions_handler) refers to app_timer.o(i.timer_list_insert) for timer_list_insert
    app_timer.o(i.list_insertions_handler) refers to app_timer.o(.data) for mp_timer_id_head
    app_timer.o(i.rtc1_init) refers to app_timer.o(i.NVIC_SetPriority) for NVIC_SetPriority
    app_timer.o(i.rtc1_start) refers to app_timer.o(i.NVIC_ClearPendingIRQ) for NVIC_ClearPendingIRQ
    app_timer.o(i.rtc1_start) refers to app_timer.o(i.NVIC_EnableIRQ) for NVIC_EnableIRQ
    app_timer.o(i.rtc1_start) refers to app_timer.o(.emb_text) for __asm___11_app_timer_c_cd27f9c3__nrf_delay_us
    app_timer.o(i.rtc1_start) refers to app_timer.o(.data) for m_rtc1_running
    app_timer.o(i.rtc1_stop) refers to app_timer.o(.emb_text) for __asm___11_app_timer_c_cd27f9c3__nrf_delay_us
    app_timer.o(i.rtc1_stop) refers to app_timer.o(.data) for m_ticks_latest
    app_timer.o(i.timeout_handler_exec) refers to app_error.o(i.app_error_handler) for app_error_handler
    app_timer.o(i.timeout_handler_exec) refers to app_timer.o(.data) for m_evt_schedule_func
    app_timer.o(i.timer_list_handler) refers to app_timer.o(i.elapsed_ticks_acquire) for elapsed_ticks_acquire
    app_timer.o(i.timer_list_handler) refers to app_timer.o(i.list_deletions_handler) for list_deletions_handler
    app_timer.o(i.timer_list_handler) refers to app_timer.o(i.expired_timers_handler) for expired_timers_handler
    app_timer.o(i.timer_list_handler) refers to app_timer.o(i.list_insertions_handler) for list_insertions_handler
    app_timer.o(i.timer_list_handler) refers to app_timer.o(i.compare_reg_update) for compare_reg_update
    app_timer.o(i.timer_list_handler) refers to app_timer.o(.data) for m_ticks_latest
    app_timer.o(i.timer_list_handler_sched) refers to app_timer.o(i.NVIC_SetPendingIRQ) for NVIC_SetPendingIRQ
    app_timer.o(i.timer_list_insert) refers to app_timer.o(.data) for mp_timer_id_head
    app_timer.o(i.timer_list_remove) refers to app_timer.o(.data) for mp_timer_id_head
    app_timer.o(i.timer_start_op_schedule) refers to app_timer.o(i.user_op_alloc) for user_op_alloc
    app_timer.o(i.timer_start_op_schedule) refers to app_timer.o(i.rtc1_counter_get) for rtc1_counter_get
    app_timer.o(i.timer_start_op_schedule) refers to app_timer.o(i.user_op_enque) for user_op_enque
    app_timer.o(i.timer_start_op_schedule) refers to app_timer.o(i.timer_list_handler_sched) for timer_list_handler_sched
    app_timer.o(i.timer_start_op_schedule) refers to app_timer.o(.data) for mp_users
    app_timer.o(i.timer_stop_all_op_schedule) refers to app_timer.o(i.user_op_alloc) for user_op_alloc
    app_timer.o(i.timer_stop_all_op_schedule) refers to app_timer.o(i.user_op_enque) for user_op_enque
    app_timer.o(i.timer_stop_all_op_schedule) refers to app_timer.o(i.timer_list_handler_sched) for timer_list_handler_sched
    app_timer.o(i.timer_stop_all_op_schedule) refers to app_timer.o(.data) for mp_users
    app_timer.o(i.timer_stop_op_schedule) refers to app_timer.o(i.user_op_alloc) for user_op_alloc
    app_timer.o(i.timer_stop_op_schedule) refers to app_timer.o(i.user_op_enque) for user_op_enque
    app_timer.o(i.timer_stop_op_schedule) refers to app_timer.o(i.timer_list_handler_sched) for timer_list_handler_sched
    app_timer.o(i.timer_stop_op_schedule) refers to app_timer.o(.data) for mp_users
    app_timer.o(i.timer_timeouts_check) refers to app_timer.o(i.rtc1_counter_get) for rtc1_counter_get
    app_timer.o(i.timer_timeouts_check) refers to app_timer.o(i.ticks_diff_get) for ticks_diff_get
    app_timer.o(i.timer_timeouts_check) refers to app_timer.o(i.timeout_handler_exec) for timeout_handler_exec
    app_timer.o(i.timer_timeouts_check) refers to app_timer.o(i.timer_list_handler_sched) for timer_list_handler_sched
    app_timer.o(i.timer_timeouts_check) refers to app_timer.o(.data) for mp_timer_id_head
    app_timer.o(i.timer_timeouts_check_sched) refers to app_timer.o(i.NVIC_SetPendingIRQ) for NVIC_SetPendingIRQ
    app_timer.o(i.user_id_get) refers to app_timer.o(i.current_int_priority_get) for current_int_priority_get
    retarget.o(i.fgetc) refers to app_uart_fifo.o(i.app_uart_get) for app_uart_get
    retarget.o(i.fputc) refers to app_uart_fifo.o(i.app_uart_put) for app_uart_put
    app_uart_fifo.o(i.app_uart_close) refers to nrf_drv_uart.o(i.nrf_drv_uart_uninit) for nrf_drv_uart_uninit
    app_uart_fifo.o(i.app_uart_flush) refers to app_fifo.o(i.app_fifo_flush) for app_fifo_flush
    app_uart_fifo.o(i.app_uart_flush) refers to app_uart_fifo.o(.bss) for m_rx_fifo
    app_uart_fifo.o(i.app_uart_get) refers to app_uart_fifo.o(i.fifo_length) for fifo_length
    app_uart_fifo.o(i.app_uart_get) refers to nrf_drv_uart.o(i.nrf_drv_uart_rx) for nrf_drv_uart_rx
    app_uart_fifo.o(i.app_uart_get) refers to app_fifo.o(i.app_fifo_get) for app_fifo_get
    app_uart_fifo.o(i.app_uart_get) refers to app_uart_fifo.o(.bss) for m_rx_fifo
    app_uart_fifo.o(i.app_uart_get) refers to app_uart_fifo.o(.data) for rx_buffer
    app_uart_fifo.o(i.app_uart_init) refers to app_fifo.o(i.app_fifo_init) for app_fifo_init
    app_uart_fifo.o(i.app_uart_init) refers to rt_memcpy.o(.emb_text) for __aeabi_memcpy4
    app_uart_fifo.o(i.app_uart_init) refers to nrf_drv_uart.o(i.nrf_drv_uart_init) for nrf_drv_uart_init
    app_uart_fifo.o(i.app_uart_init) refers to nrf_drv_uart.o(i.nrf_drv_uart_rx_enable) for nrf_drv_uart_rx_enable
    app_uart_fifo.o(i.app_uart_init) refers to nrf_drv_uart.o(i.nrf_drv_uart_rx) for nrf_drv_uart_rx
    app_uart_fifo.o(i.app_uart_init) refers to app_uart_fifo.o(.data) for m_event_handler
    app_uart_fifo.o(i.app_uart_init) refers to app_uart_fifo.o(.bss) for m_rx_fifo
    app_uart_fifo.o(i.app_uart_init) refers to app_uart_fifo.o(.constdata) for .constdata
    app_uart_fifo.o(i.app_uart_init) refers to app_uart_fifo.o(i.uart_event_handler) for uart_event_handler
    app_uart_fifo.o(i.app_uart_put) refers to nrf_drv_uart.o(i.nrf_drv_uart_tx) for nrf_drv_uart_tx
    app_uart_fifo.o(i.app_uart_put) refers to app_fifo.o(i.app_fifo_put) for app_fifo_put
    app_uart_fifo.o(i.app_uart_put) refers to app_uart_fifo.o(.data) for tx_tmp
    app_uart_fifo.o(i.app_uart_put) refers to app_uart_fifo.o(.bss) for m_tx_fifo
    app_uart_fifo.o(i.uart_event_handler) refers to app_fifo.o(i.app_fifo_put) for app_fifo_put
    app_uart_fifo.o(i.uart_event_handler) refers to app_uart_fifo.o(i.fifo_length) for fifo_length
    app_uart_fifo.o(i.uart_event_handler) refers to nrf_drv_uart.o(i.nrf_drv_uart_rx) for nrf_drv_uart_rx
    app_uart_fifo.o(i.uart_event_handler) refers to app_fifo.o(i.app_fifo_get) for app_fifo_get
    app_uart_fifo.o(i.uart_event_handler) refers to nrf_drv_uart.o(i.nrf_drv_uart_tx) for nrf_drv_uart_tx
    app_uart_fifo.o(i.uart_event_handler) refers to app_uart_fifo.o(.bss) for m_rx_fifo
    app_uart_fifo.o(i.uart_event_handler) refers to app_uart_fifo.o(.data) for m_event_handler
    softdevice_handler.o(i.SWI2_IRQHandler) refers to app_error.o(i.app_error_handler) for app_error_handler
    softdevice_handler.o(i.SWI2_IRQHandler) refers to softdevice_handler.o(i.intern_softdevice_events_execute) for intern_softdevice_events_execute
    softdevice_handler.o(i.SWI2_IRQHandler) refers to softdevice_handler.o(.data) for m_evt_schedule_func
    softdevice_handler.o(i.intern_softdevice_events_execute) refers to app_error.o(i.app_error_handler) for app_error_handler
    softdevice_handler.o(i.intern_softdevice_events_execute) refers to softdevice_handler.o(.data) for m_softdevice_enabled
    softdevice_handler.o(i.softdevice_assertion_handler) refers (Weak) to main.o(i.assert_nrf_callback) for assert_nrf_callback
    softdevice_handler.o(i.softdevice_ble_evt_handler_set) refers to softdevice_handler.o(.data) for m_ble_evt_handler
    softdevice_handler.o(i.softdevice_handler_init) refers to softdevice_handler.o(.data) for mp_ble_evt_buffer
    softdevice_handler.o(i.softdevice_handler_init) refers to softdevice_handler.o(i.softdevice_assertion_handler) for softdevice_assertion_handler
    softdevice_handler.o(i.softdevice_handler_sd_disable) refers to softdevice_handler.o(.data) for m_softdevice_enabled
    softdevice_handler.o(i.softdevice_sys_evt_handler_set) refers to softdevice_handler.o(.data) for m_sys_evt_handler
    __2printf.o(.text) refers to _printf_char_file.o(.text) for _printf_char_file
    __2printf.o(.text) refers to retarget.o(.data) for __stdout
    noretval__2printf.o(.text) refers to _printf_char_file.o(.text) for _printf_char_file
    noretval__2printf.o(.text) refers to retarget.o(.data) for __stdout
    __printf.o(.text) refers to _printf_percent.o(.ARM.Collect$$_printf_percent$$00000000) for _printf_percent
    _printf_str.o(.text) refers (Special) to _printf_char.o(.text) for _printf_cs_common
    _printf_hex_ll.o(.text) refers to _printf_intcommon.o(.text) for _printf_int_common
    _printf_hex_ll.o(.text) refers to _printf_hex_ll.o(.constdata) for .constdata
    _printf_hex_int.o(.text) refers to _printf_intcommon.o(.text) for _printf_int_common
    _printf_hex_int.o(.text) refers to _printf_hex_int.o(.constdata) for .constdata
    _printf_hex_int_ll.o(.text) refers to _printf_intcommon.o(.text) for _printf_int_common
    _printf_hex_int_ll.o(.text) refers to _printf_hex_int_ll.o(.constdata) for .constdata
    _printf_hex_ptr.o(.text) refers to _printf_intcommon.o(.text) for _printf_int_common
    _printf_hex_ptr.o(.text) refers to _printf_hex_ptr.o(.constdata) for .constdata
    _printf_hex_int_ptr.o(.text) refers to _printf_intcommon.o(.text) for _printf_int_common
    _printf_hex_int_ptr.o(.text) refers to _printf_hex_int_ptr.o(.constdata) for .constdata
    _printf_hex_ll_ptr.o(.text) refers to _printf_intcommon.o(.text) for _printf_int_common
    _printf_hex_ll_ptr.o(.text) refers to _printf_hex_ll_ptr.o(.constdata) for .constdata
    _printf_hex_int_ll_ptr.o(.text) refers to _printf_intcommon.o(.text) for _printf_int_common
    _printf_hex_int_ll_ptr.o(.text) refers to _printf_hex_int_ll_ptr.o(.constdata) for .constdata
    __printf_flags.o(.text) refers to _printf_percent.o(.ARM.Collect$$_printf_percent$$00000000) for _printf_percent
    __printf_flags.o(.text) refers to __printf_flags.o(.constdata) for .constdata
    __printf_ss.o(.text) refers to _printf_percent.o(.ARM.Collect$$_printf_percent$$00000000) for _printf_percent
    __printf_flags_ss.o(.text) refers to _printf_percent.o(.ARM.Collect$$_printf_percent$$00000000) for _printf_percent
    __printf_flags_ss.o(.text) refers to __printf_flags_ss.o(.constdata) for .constdata
    __printf_wp.o(.text) refers to __printf_wp.o(i._is_digit) for _is_digit
    __printf_wp.o(.text) refers to _printf_percent.o(.ARM.Collect$$_printf_percent$$00000000) for _printf_percent
    __printf_flags_wp.o(.text) refers to __printf_wp.o(i._is_digit) for _is_digit
    __printf_flags_wp.o(.text) refers to _printf_percent.o(.ARM.Collect$$_printf_percent$$00000000) for _printf_percent
    __printf_flags_wp.o(.text) refers to __printf_flags_wp.o(.constdata) for .constdata
    __printf_ss_wp.o(.text) refers to __printf_wp.o(i._is_digit) for _is_digit
    __printf_ss_wp.o(.text) refers to _printf_percent.o(.ARM.Collect$$_printf_percent$$00000000) for _printf_percent
    __printf_flags_ss_wp.o(.text) refers to __printf_wp.o(i._is_digit) for _is_digit
    __printf_flags_ss_wp.o(.text) refers to _printf_percent.o(.ARM.Collect$$_printf_percent$$00000000) for _printf_percent
    __printf_flags_ss_wp.o(.text) refers to __printf_flags_ss_wp.o(.constdata) for .constdata
    _printf_s.o(.ARM.Collect$$_printf_percent$$00000014) refers (Weak) to _printf_char.o(.text) for _printf_string
    _printf_x.o(.ARM.Collect$$_printf_percent$$0000000C) refers (Weak) to _printf_hex_int.o(.text) for _printf_int_hex
    _printf_percent.o(.ARM.Collect$$_printf_percent$$00000000) refers (Special) to _printf_percent_end.o(.ARM.Collect$$_printf_percent$$00000017) for _printf_percent_end
    rt_memcpy.o(.text) refers to rt_memcpy.o(.emb_text) for __aeabi_memcpy4
    __main.o(!!!main) refers to __rtentry.o(.ARM.Collect$$rtentry$$00000000) for __rt_entry
    dfixi.o(.text) refers (Special) to usenofp.o(x$fpl$usenofp) for __I$use$fp
    dflti.o(.text) refers (Special) to usenofp.o(x$fpl$usenofp) for __I$use$fp
    dmul.o(.text) refers (Special) to usenofp.o(x$fpl$usenofp) for __I$use$fp
    __rtentry.o(.ARM.Collect$$rtentry$$00000000) refers (Special) to __rtentry2.o(.ARM.Collect$$rtentry$$0000000A) for __rt_entry_li
    __rtentry.o(.ARM.Collect$$rtentry$$00000000) refers (Special) to __rtentry2.o(.ARM.Collect$$rtentry$$0000000D) for __rt_entry_main
    __rtentry.o(.ARM.Collect$$rtentry$$00000000) refers (Special) to __rtentry2.o(.ARM.Collect$$rtentry$$0000000C) for __rt_entry_postli_1
    __rtentry.o(.ARM.Collect$$rtentry$$00000000) refers (Special) to __rtentry2.o(.ARM.Collect$$rtentry$$00000009) for __rt_entry_postsh_1
    __rtentry.o(.ARM.Collect$$rtentry$$00000000) refers (Special) to __rtentry2.o(.ARM.Collect$$rtentry$$00000002) for __rt_entry_presh_1
    __rtentry.o(.ARM.Collect$$rtentry$$00000000) refers (Special) to __rtentry4.o(.ARM.Collect$$rtentry$$00000004) for __rt_entry_sh
    aeabi_idiv0_sigfpe.o(.text) refers to rt_div0.o(.text) for __rt_div0
    _printf_char.o(.text) refers (Weak) to _printf_str.o(.text) for _printf_str
    _printf_char_file.o(.text) refers to _printf_char_common.o(.text) for _printf_char_common
    _printf_char_file.o(.text) refers to ferror.o(.text) for ferror
    _printf_char_file.o(.text) refers to retarget.o(i.fputc) for fputc
    __rtentry2.o(.ARM.Collect$$rtentry$$00000008) refers to boardinit2.o(.text) for _platform_post_stackheap_init
    __rtentry2.o(.ARM.Collect$$rtentry$$0000000A) refers to libinit.o(.ARM.Collect$$libinit$$00000000) for __rt_lib_init
    __rtentry2.o(.ARM.Collect$$rtentry$$0000000B) refers to boardinit3.o(.text) for _platform_post_lib_init
    __rtentry2.o(.ARM.Collect$$rtentry$$0000000D) refers to main.o(i.main) for main
    __rtentry2.o(.ARM.Collect$$rtentry$$0000000D) refers to exit.o(.text) for exit
    __rtentry2.o(.ARM.exidx) refers to __rtentry2.o(.ARM.Collect$$rtentry$$00000001) for .ARM.Collect$$rtentry$$00000001
    __rtentry2.o(.ARM.exidx) refers to __rtentry2.o(.ARM.Collect$$rtentry$$00000008) for .ARM.Collect$$rtentry$$00000008
    __rtentry2.o(.ARM.exidx) refers to __rtentry2.o(.ARM.Collect$$rtentry$$0000000A) for .ARM.Collect$$rtentry$$0000000A
    __rtentry2.o(.ARM.exidx) refers to __rtentry2.o(.ARM.Collect$$rtentry$$0000000B) for .ARM.Collect$$rtentry$$0000000B
    __rtentry2.o(.ARM.exidx) refers to __rtentry2.o(.ARM.Collect$$rtentry$$0000000D) for .ARM.Collect$$rtentry$$0000000D
    __rtentry4.o(.ARM.Collect$$rtentry$$00000004) refers to sys_stackheap_outer.o(.text) for __user_setup_stackheap
    __rtentry4.o(.ARM.exidx) refers to __rtentry4.o(.ARM.Collect$$rtentry$$00000004) for .ARM.Collect$$rtentry$$00000004
    rt_div0.o(.text) refers to defsig_fpe_outer.o(.text) for __rt_SIGFPE
    _printf_char_common.o(.text) refers to __printf.o(.text) for __printf
    sys_stackheap_outer.o(.text) refers to libspace.o(.text) for __user_perproc_libspace
    sys_stackheap_outer.o(.text) refers to arm_startup_nrf51.o(.text) for __user_initial_stackheap
    sys_stackheap_outer.o(__vectab_stack_and_reset_area) refers to tempstk.o(.text) for __temporary_stack_top
    sys_stackheap_outer.o(__vectab_stack_and_reset_area) refers to __main.o(!!!main) for __main
    exit.o(.text) refers to rtexit.o(.ARM.Collect$$rtexit$$00000000) for __rt_exit
    defsig_fpe_outer.o(.text) refers to defsig_fpe_inner.o(.text) for __rt_SIGFPE_inner
    defsig_fpe_outer.o(.text) refers to defsig_exit.o(.text) for __sig_exit
    defsig_fpe_formal.o(.text) refers to rt_raise.o(.text) for __rt_raise
    libinit.o(.ARM.Collect$$libinit$$00000000) refers (Special) to libinit2.o(.ARM.Collect$$libinit$$0000002E) for __rt_lib_init_alloca_1
    libinit.o(.ARM.Collect$$libinit$$00000000) refers (Special) to libinit2.o(.ARM.Collect$$libinit$$0000002C) for __rt_lib_init_argv_1
    libinit.o(.ARM.Collect$$libinit$$00000000) refers (Special) to libinit2.o(.ARM.Collect$$libinit$$0000001B) for __rt_lib_init_atexit_1
    libinit.o(.ARM.Collect$$libinit$$00000000) refers (Special) to libinit2.o(.ARM.Collect$$libinit$$00000021) for __rt_lib_init_clock_1
    libinit.o(.ARM.Collect$$libinit$$00000000) refers (Special) to libinit2.o(.ARM.Collect$$libinit$$00000032) for __rt_lib_init_cpp_1
    libinit.o(.ARM.Collect$$libinit$$00000000) refers (Special) to libinit2.o(.ARM.Collect$$libinit$$00000030) for __rt_lib_init_exceptions_1
    libinit.o(.ARM.Collect$$libinit$$00000000) refers (Special) to libinit2.o(.ARM.Collect$$libinit$$00000002) for __rt_lib_init_fp_1
    libinit.o(.ARM.Collect$$libinit$$00000000) refers (Special) to libinit2.o(.ARM.Collect$$libinit$$0000001F) for __rt_lib_init_fp_trap_1
    libinit.o(.ARM.Collect$$libinit$$00000000) refers (Special) to libinit2.o(.ARM.Collect$$libinit$$00000023) for __rt_lib_init_getenv_1
    libinit.o(.ARM.Collect$$libinit$$00000000) refers (Special) to libinit2.o(.ARM.Collect$$libinit$$0000000A) for __rt_lib_init_heap_1
    libinit.o(.ARM.Collect$$libinit$$00000000) refers (Special) to libinit2.o(.ARM.Collect$$libinit$$00000011) for __rt_lib_init_lc_collate_1
    libinit.o(.ARM.Collect$$libinit$$00000000) refers (Special) to libinit2.o(.ARM.Collect$$libinit$$00000013) for __rt_lib_init_lc_ctype_1
    libinit.o(.ARM.Collect$$libinit$$00000000) refers (Special) to libinit2.o(.ARM.Collect$$libinit$$00000015) for __rt_lib_init_lc_monetary_1
    libinit.o(.ARM.Collect$$libinit$$00000000) refers (Special) to libinit2.o(.ARM.Collect$$libinit$$00000017) for __rt_lib_init_lc_numeric_1
    libinit.o(.ARM.Collect$$libinit$$00000000) refers (Special) to libinit2.o(.ARM.Collect$$libinit$$00000019) for __rt_lib_init_lc_time_1
    libinit.o(.ARM.Collect$$libinit$$00000000) refers (Special) to libinit2.o(.ARM.Collect$$libinit$$00000004) for __rt_lib_init_preinit_1
    libinit.o(.ARM.Collect$$libinit$$00000000) refers (Special) to libinit2.o(.ARM.Collect$$libinit$$0000000E) for __rt_lib_init_rand_1
    libinit.o(.ARM.Collect$$libinit$$00000000) refers (Special) to libinit2.o(.ARM.Collect$$libinit$$00000033) for __rt_lib_init_return
    libinit.o(.ARM.Collect$$libinit$$00000000) refers (Special) to libinit2.o(.ARM.Collect$$libinit$$0000001D) for __rt_lib_init_signal_1
    libinit.o(.ARM.Collect$$libinit$$00000000) refers (Special) to libinit2.o(.ARM.Collect$$libinit$$00000025) for __rt_lib_init_stdio_1
    libinit.o(.ARM.Collect$$libinit$$00000000) refers (Special) to libinit2.o(.ARM.Collect$$libinit$$0000000C) for __rt_lib_init_user_alloc_1
    libspace.o(.text) refers to libspace.o(.bss) for __libspace_start
    rtexit.o(.ARM.Collect$$rtexit$$00000000) refers (Special) to rtexit2.o(.ARM.Collect$$rtexit$$00000004) for __rt_exit_exit
    rtexit.o(.ARM.Collect$$rtexit$$00000000) refers (Special) to rtexit2.o(.ARM.Collect$$rtexit$$00000003) for __rt_exit_ls
    rtexit.o(.ARM.Collect$$rtexit$$00000000) refers (Special) to rtexit2.o(.ARM.Collect$$rtexit$$00000002) for __rt_exit_prels_1
    rtexit.o(.ARM.exidx) refers (Special) to rtexit2.o(.ARM.Collect$$rtexit$$00000004) for __rt_exit_exit
    rtexit.o(.ARM.exidx) refers (Special) to rtexit2.o(.ARM.Collect$$rtexit$$00000003) for __rt_exit_ls
    rtexit.o(.ARM.exidx) refers (Special) to rtexit2.o(.ARM.Collect$$rtexit$$00000002) for __rt_exit_prels_1
    rtexit.o(.ARM.exidx) refers to rtexit.o(.ARM.Collect$$rtexit$$00000000) for .ARM.Collect$$rtexit$$00000000
    rt_raise.o(.text) refers to __raise.o(.text) for __raise
    rt_raise.o(.text) refers to sys_exit.o(.text) for _sys_exit
    defsig_exit.o(.text) refers to sys_exit.o(.text) for _sys_exit
    defsig_fpe_inner.o(.text) refers to defsig_general.o(.text) for __default_signal_display
    libinit2.o(.ARM.Collect$$libinit$$00000010) refers to libinit2.o(.ARM.Collect$$libinit$$0000000F) for .ARM.Collect$$libinit$$0000000F
    libinit2.o(.ARM.Collect$$libinit$$00000012) refers to libinit2.o(.ARM.Collect$$libinit$$0000000F) for .ARM.Collect$$libinit$$0000000F
    libinit2.o(.ARM.Collect$$libinit$$00000014) refers to libinit2.o(.ARM.Collect$$libinit$$0000000F) for .ARM.Collect$$libinit$$0000000F
    libinit2.o(.ARM.Collect$$libinit$$00000016) refers to libinit2.o(.ARM.Collect$$libinit$$0000000F) for .ARM.Collect$$libinit$$0000000F
    libinit2.o(.ARM.Collect$$libinit$$00000018) refers to libinit2.o(.ARM.Collect$$libinit$$0000000F) for .ARM.Collect$$libinit$$0000000F
    libinit2.o(.ARM.Collect$$libinit$$00000026) refers to argv_veneer.o(.text) for __ARM_argv_veneer
    libinit2.o(.ARM.Collect$$libinit$$00000027) refers to argv_veneer.o(.text) for __ARM_argv_veneer
    sys_exit.o(.text) refers (Special) to use_no_semi.o(.text) for __I$use$semihosting
    sys_exit.o(.text) refers (Special) to indicate_semi.o(.text) for __semihosting_library_function
    rtexit2.o(.ARM.Collect$$rtexit$$00000003) refers to libshutdown.o(.ARM.Collect$$libshutdown$$00000000) for __rt_lib_shutdown
    rtexit2.o(.ARM.Collect$$rtexit$$00000004) refers to sys_exit.o(.text) for _sys_exit
    rtexit2.o(.ARM.exidx) refers to rtexit2.o(.ARM.Collect$$rtexit$$00000001) for .ARM.Collect$$rtexit$$00000001
    rtexit2.o(.ARM.exidx) refers to rtexit2.o(.ARM.Collect$$rtexit$$00000003) for .ARM.Collect$$rtexit$$00000003
    rtexit2.o(.ARM.exidx) refers to rtexit2.o(.ARM.Collect$$rtexit$$00000004) for .ARM.Collect$$rtexit$$00000004
    __raise.o(.text) refers to defsig.o(CL$$defsig) for __default_signal_handler
    defsig_general.o(.text) refers to sys_wrch.o(.text) for _ttywrch
    sys_wrch.o(.text) refers (Special) to use_no_semi.o(.text) for __I$use$semihosting
    sys_wrch.o(.text) refers (Special) to indicate_semi.o(.text) for __semihosting_library_function
    defsig.o(CL$$defsig) refers to defsig_fpe_inner.o(.text) for __rt_SIGFPE_inner
    defsig.o(CL$$defsig) refers to defsig_rtmem_inner.o(.text) for __rt_SIGRTMEM_inner
    _get_argv_nomalloc.o(.text) refers (Special) to hrguard.o(.text) for __heap_region$guard
    _get_argv_nomalloc.o(.text) refers to defsig_rtmem_outer.o(.text) for __rt_SIGRTMEM
    _get_argv_nomalloc.o(.text) refers to sys_command.o(.text) for _sys_command_string
    libshutdown.o(.ARM.Collect$$libshutdown$$00000000) refers (Special) to libshutdown2.o(.ARM.Collect$$libshutdown$$00000006) for __rt_lib_shutdown_fp_trap_1
    libshutdown.o(.ARM.Collect$$libshutdown$$00000000) refers (Special) to libshutdown2.o(.ARM.Collect$$libshutdown$$0000000E) for __rt_lib_shutdown_heap_1
    libshutdown.o(.ARM.Collect$$libshutdown$$00000000) refers (Special) to libshutdown2.o(.ARM.Collect$$libshutdown$$0000000F) for __rt_lib_shutdown_return
    libshutdown.o(.ARM.Collect$$libshutdown$$00000000) refers (Special) to libshutdown2.o(.ARM.Collect$$libshutdown$$00000009) for __rt_lib_shutdown_signal_1
    libshutdown.o(.ARM.Collect$$libshutdown$$00000000) refers (Special) to libshutdown2.o(.ARM.Collect$$libshutdown$$00000003) for __rt_lib_shutdown_stdio_1
    libshutdown.o(.ARM.Collect$$libshutdown$$00000000) refers (Special) to libshutdown2.o(.ARM.Collect$$libshutdown$$0000000B) for __rt_lib_shutdown_user_alloc_1
    sys_command.o(.text) refers (Special) to use_no_semi.o(.text) for __I$use$semihosting
    sys_command.o(.text) refers (Special) to indicate_semi.o(.text) for __semihosting_library_function
    defsig_abrt_inner.o(.text) refers to defsig_general.o(.text) for __default_signal_display
    defsig_rtred_inner.o(.text) refers to defsig_general.o(.text) for __default_signal_display
    defsig_rtmem_inner.o(.text) refers to defsig_general.o(.text) for __default_signal_display
    defsig_rtmem_outer.o(.text) refers to defsig_rtmem_inner.o(.text) for __rt_SIGRTMEM_inner
    defsig_rtmem_outer.o(.text) refers to defsig_exit.o(.text) for __sig_exit
    defsig_rtmem_formal.o(.text) refers to rt_raise.o(.text) for __rt_raise
    defsig_stak_inner.o(.text) refers to defsig_general.o(.text) for __default_signal_display
    defsig_pvfn_inner.o(.text) refers to defsig_general.o(.text) for __default_signal_display
    defsig_cppl_inner.o(.text) refers to defsig_general.o(.text) for __default_signal_display
    defsig_segv_inner.o(.text) refers to defsig_general.o(.text) for __default_signal_display
    defsig_other.o(.text) refers to defsig_general.o(.text) for __default_signal_display


==============================================================================

Removing Unused input sections from the image.

    Removing main.o(.rev16_text), (4 bytes).
    Removing main.o(.revsh_text), (4 bytes).
    Removing main.o(.emb_text), (30 bytes).
    Removing main.o(i.assert_nrf_callback), (24 bytes).
    Removing ofo_led.o(.rev16_text), (4 bytes).
    Removing ofo_led.o(.revsh_text), (4 bytes).
    Removing ofo_adc.o(.rev16_text), (4 bytes).
    Removing ofo_adc.o(.revsh_text), (4 bytes).
    Removing ofo_wdt.o(.rev16_text), (4 bytes).
    Removing ofo_wdt.o(.revsh_text), (4 bytes).
    Removing ofo_uart.o(.rev16_text), (4 bytes).
    Removing ofo_uart.o(.revsh_text), (4 bytes).
    Removing ofo_uart.o(.emb_text), (30 bytes).
    Removing ofo_uart.o(i.uart_send), (28 bytes).
    Removing ofo_flash.o(.rev16_text), (4 bytes).
    Removing ofo_flash.o(.revsh_text), (4 bytes).
    Removing ofo_flash.o(i.Readparm), (44 bytes).
    Removing ofo_flash.o(i.WriteParm), (44 bytes).
    Removing ofo_flash.o(i.clear_flash), (44 bytes).
    Removing ofo_flash.o(i.flash_test), (68 bytes).
    Removing ofo_flash.o(i.load_flash), (96 bytes).
    Removing ofo_flash.o(i.storage_flash), (96 bytes).
    Removing ofo_flash.o(i.update_flash), (96 bytes).
    Removing ofo_buzz.o(.rev16_text), (4 bytes).
    Removing ofo_buzz.o(.revsh_text), (4 bytes).
    Removing ofo_buzz.o(i.VoiceLockClose), (20 bytes).
    Removing ofo_date.o(i.AppRtcInit), (52 bytes).
    Removing ofo_date.o(i.IfTestTime), (52 bytes).
    Removing ofo_date.o(i.SecondTimeDeal), (36 bytes).
    Removing ofo_date.o(i.SetTimeStamp), (12 bytes).
    Removing ofo_date.o(i.date_timer_handler), (16 bytes).
    Removing ofo_date.o(i.end_trans), (28 bytes).
    Removing ofo_date.o(.bss), (32 bytes).
    Removing ofo_date.o(.constdata), (4 bytes).
    Removing ofo_date.o(.data), (13 bytes).
    Removing ofo_lock.o(.rev16_text), (4 bytes).
    Removing ofo_lock.o(.revsh_text), (4 bytes).
    Removing ofo_lock.o(i.GetLockPos), (20 bytes).
    Removing ofo_lock.o(i.GetLockSt), (20 bytes).
    Removing ofo_lis3dh.o(.rev16_text), (4 bytes).
    Removing ofo_lis3dh.o(.revsh_text), (4 bytes).
    Removing ofo_lis3dh.o(.emb_text), (30 bytes).
    Removing ofo_lis3dh.o(i.BikeRunStopDec), (160 bytes).
    Removing ofo_lis3dh.o(i.BikeState), (32 bytes).
    Removing ofo_lis3dh.o(i.BikeTiltDec), (108 bytes).
    Removing ofo_lis3dh.o(i.LIS3DH_FIFOModeEnable), (520 bytes).
    Removing ofo_lis3dh.o(i.LIS3DH_Get6DPosition), (104 bytes).
    Removing ofo_lis3dh.o(i.LIS3DH_GetAccAxesRaw), (120 bytes).
    Removing ofo_lis3dh.o(i.LIS3DH_GetAccXYZRaw), (34 bytes).
    Removing ofo_lis3dh.o(i.LIS3DH_GetAuxRaw), (158 bytes).
    Removing ofo_lis3dh.o(i.LIS3DH_GetClickResponse), (326 bytes).
    Removing ofo_lis3dh.o(i.LIS3DH_GetFifoSourceBit), (126 bytes).
    Removing ofo_lis3dh.o(i.LIS3DH_GetFifoSourceFSS), (38 bytes).
    Removing ofo_lis3dh.o(i.LIS3DH_GetFifoSourceReg), (22 bytes).
    Removing ofo_lis3dh.o(i.LIS3DH_GetInt1Src), (22 bytes).
    Removing ofo_lis3dh.o(i.LIS3DH_GetInt1SrcBit), (248 bytes).
    Removing ofo_lis3dh.o(i.LIS3DH_GetStatusAUX), (22 bytes).
    Removing ofo_lis3dh.o(i.LIS3DH_GetStatusAUXBit), (280 bytes).
    Removing ofo_lis3dh.o(i.LIS3DH_GetStatusBit), (286 bytes).
    Removing ofo_lis3dh.o(i.LIS3DH_GetStatusReg), (22 bytes).
    Removing ofo_lis3dh.o(i.LIS3DH_GetTempRaw), (44 bytes).
    Removing ofo_lis3dh.o(i.LIS3DH_GetWHO_AM_I), (22 bytes).
    Removing ofo_lis3dh.o(i.LIS3DH_HPFAOI1Enable), (54 bytes).
    Removing ofo_lis3dh.o(i.LIS3DH_HPFAOI2Enable), (60 bytes).
    Removing ofo_lis3dh.o(i.LIS3DH_HPFClickEnable), (60 bytes).
    Removing ofo_lis3dh.o(i.LIS3DH_Int1LatchEnable), (60 bytes).
    Removing ofo_lis3dh.o(i.LIS3DH_ReadReg), (20 bytes).
    Removing ofo_lis3dh.o(i.LIS3DH_ResetInt1Latch), (20 bytes).
    Removing ofo_lis3dh.o(i.LIS3DH_SetADCAux), (60 bytes).
    Removing ofo_lis3dh.o(i.LIS3DH_SetAxis), (60 bytes).
    Removing ofo_lis3dh.o(i.LIS3DH_SetBDU), (60 bytes).
    Removing ofo_lis3dh.o(i.LIS3DH_SetBLE), (60 bytes).
    Removing ofo_lis3dh.o(i.LIS3DH_SetClickCFG), (54 bytes).
    Removing ofo_lis3dh.o(i.LIS3DH_SetClickLATENCY), (22 bytes).
    Removing ofo_lis3dh.o(i.LIS3DH_SetClickLIMIT), (30 bytes).
    Removing ofo_lis3dh.o(i.LIS3DH_SetClickTHS), (30 bytes).
    Removing ofo_lis3dh.o(i.LIS3DH_SetClickWINDOW), (22 bytes).
    Removing ofo_lis3dh.o(i.LIS3DH_SetFilterDataSel), (60 bytes).
    Removing ofo_lis3dh.o(i.LIS3DH_SetFullScale), (60 bytes).
    Removing ofo_lis3dh.o(i.LIS3DH_SetHPFCutOFF), (68 bytes).
    Removing ofo_lis3dh.o(i.LIS3DH_SetHPFMode), (60 bytes).
    Removing ofo_lis3dh.o(i.LIS3DH_SetInt1Duration), (30 bytes).
    Removing ofo_lis3dh.o(i.LIS3DH_SetInt1Pin), (48 bytes).
    Removing ofo_lis3dh.o(i.LIS3DH_SetInt1Threshold), (30 bytes).
    Removing ofo_lis3dh.o(i.LIS3DH_SetInt2Pin), (48 bytes).
    Removing ofo_lis3dh.o(i.LIS3DH_SetInt6D4DConfiguration), (186 bytes).
    Removing ofo_lis3dh.o(i.LIS3DH_SetIntConfiguration), (54 bytes).
    Removing ofo_lis3dh.o(i.LIS3DH_SetIntMode), (60 bytes).
    Removing ofo_lis3dh.o(i.LIS3DH_SetMode), (212 bytes).
    Removing ofo_lis3dh.o(i.LIS3DH_SetODR), (60 bytes).
    Removing ofo_lis3dh.o(i.LIS3DH_SetSPIInterface), (54 bytes).
    Removing ofo_lis3dh.o(i.LIS3DH_SetSelfTest), (60 bytes).
    Removing ofo_lis3dh.o(i.LIS3DH_SetTemperature), (60 bytes).
    Removing ofo_lis3dh.o(i.LIS3DH_SetTriggerInt), (60 bytes).
    Removing ofo_lis3dh.o(i.LIS3DH_SetWaterMark), (62 bytes).
    Removing ofo_lis3dh.o(i.LIS3DH_WriteReg), (18 bytes).
    Removing ofo_lis3dh.o(i.LIS3DHinit), (92 bytes).
    Removing ofo_lis3dh.o(i.test), (32 bytes).
    Removing ofo_lis3dh.o(i.test1), (10 bytes).
    Removing ofo_lis3dh.o(.bss), (144 bytes).
    Removing ofo_lis3dh.o(.data), (1 bytes).
    Removing ofo_ble_unlock.o(i.SendStr2App), (60 bytes).
    Removing ofo_key_unlock.o(.rev16_text), (4 bytes).
    Removing ofo_key_unlock.o(.revsh_text), (4 bytes).
    Removing ofo_factory_test.o(.rev16_text), (4 bytes).
    Removing ofo_factory_test.o(.revsh_text), (4 bytes).
    Removing ofo_factory_test.o(.emb_text), (30 bytes).
    Removing ofo_factory_test.o(i.AUTCommandDeal), (12 bytes).
    Removing ofo_factory_test.o(i.CommandDeal), (96 bytes).
    Removing ofo_factory_test.o(i.SETCommandDeal), (644 bytes).
    Removing ofo_factory_test.o(i.nrf_gpio_pin_clear), (16 bytes).
    Removing ofo_factory_test.o(i.nrf_gpio_pin_set), (16 bytes).
    Removing system_nrf51.o(.rev16_text), (4 bytes).
    Removing system_nrf51.o(.revsh_text), (4 bytes).
    Removing system_nrf51.o(i.SystemCoreClockUpdate), (16 bytes).
    Removing ble_advertising.o(.rev16_text), (4 bytes).
    Removing ble_advertising.o(.revsh_text), (4 bytes).
    Removing ble_advertising.o(i.ble_advertising_on_sys_evt), (84 bytes).
    Removing ble_advertising.o(i.ble_advertising_peer_addr_reply), (60 bytes).
    Removing ble_advertising.o(i.ble_advertising_restart_without_whitelist), (96 bytes).
    Removing ble_advertising.o(i.ble_advertising_whitelist_reply), (104 bytes).
    Removing ble_conn_params.o(i.ble_conn_params_change_conn_params), (112 bytes).
    Removing ble_conn_params.o(i.ble_conn_params_stop), (16 bytes).
    Removing ble_nus.o(i.ble_nus_string_send), (88 bytes).
    Removing ble_srv_common.o(i.ble_srv_ascii_to_utf8), (18 bytes).
    Removing ble_srv_common.o(i.ble_srv_report_ref_encode), (62 bytes).
    Removing ble_srv_common.o(i.characteristic_add), (520 bytes).
    Removing ble_srv_common.o(i.descriptor_add), (220 bytes).
    Removing ble_srv_common.o(i.set_security_req), (192 bytes).
    Removing nrf_adc.o(.rev16_text), (4 bytes).
    Removing nrf_adc.o(.revsh_text), (4 bytes).
    Removing nrf_adc.o(i.nrf_adc_convert_single), (88 bytes).
    Removing nrf_delay.o(.rev16_text), (4 bytes).
    Removing nrf_delay.o(.revsh_text), (4 bytes).
    Removing nrf_drv_common.o(.rev16_text), (4 bytes).
    Removing nrf_drv_common.o(.revsh_text), (4 bytes).
    Removing nrf_drv_gpiote.o(.rev16_text), (4 bytes).
    Removing nrf_drv_gpiote.o(.revsh_text), (4 bytes).
    Removing nrf_drv_gpiote.o(i.nrf_drv_gpiote_in_event_addr_get), (26 bytes).
    Removing nrf_drv_gpiote.o(i.nrf_drv_gpiote_in_is_set), (32 bytes).
    Removing nrf_drv_gpiote.o(i.nrf_drv_gpiote_in_uninit), (60 bytes).
    Removing nrf_drv_gpiote.o(i.nrf_drv_gpiote_is_init), (20 bytes).
    Removing nrf_drv_gpiote.o(i.nrf_drv_gpiote_out_clear), (12 bytes).
    Removing nrf_drv_gpiote.o(i.nrf_drv_gpiote_out_init), (244 bytes).
    Removing nrf_drv_gpiote.o(i.nrf_drv_gpiote_out_set), (12 bytes).
    Removing nrf_drv_gpiote.o(i.nrf_drv_gpiote_out_task_addr_get), (28 bytes).
    Removing nrf_drv_gpiote.o(i.nrf_drv_gpiote_out_task_disable), (48 bytes).
    Removing nrf_drv_gpiote.o(i.nrf_drv_gpiote_out_task_enable), (76 bytes).
    Removing nrf_drv_gpiote.o(i.nrf_drv_gpiote_out_task_force), (76 bytes).
    Removing nrf_drv_gpiote.o(i.nrf_drv_gpiote_out_task_trigger), (32 bytes).
    Removing nrf_drv_gpiote.o(i.nrf_drv_gpiote_out_toggle), (44 bytes).
    Removing nrf_drv_gpiote.o(i.nrf_drv_gpiote_out_uninit), (54 bytes).
    Removing nrf_drv_gpiote.o(i.nrf_drv_gpiote_uninit), (72 bytes).
    Removing nrf_drv_gpiote.o(i.nrf_gpio_cfg_default), (24 bytes).
    Removing nrf_drv_gpiote.o(i.nrf_gpio_pin_clear), (16 bytes).
    Removing nrf_drv_gpiote.o(i.nrf_gpio_pin_set), (16 bytes).
    Removing nrf_drv_gpiote.o(i.nrf_gpiote_te_default), (20 bytes).
    Removing nrf_drv_spi.o(.rev16_text), (4 bytes).
    Removing nrf_drv_spi.o(.revsh_text), (4 bytes).
    Removing nrf_drv_spi.o(i.nrf_drv_spi_init), (388 bytes).
    Removing nrf_drv_spi.o(i.nrf_drv_spi_transfer), (236 bytes).
    Removing nrf_drv_spi.o(i.nrf_drv_spi_uninit), (88 bytes).
    Removing nrf_drv_spi.o(i.nrf_gpio_cfg), (38 bytes).
    Removing nrf_drv_spi.o(i.nrf_gpio_cfg_output), (24 bytes).
    Removing nrf_drv_spi.o(i.nrf_gpio_pin_clear), (16 bytes).
    Removing nrf_drv_spi.o(i.nrf_spi_int_disable), (10 bytes).
    Removing nrf_drv_spi.o(i.nrf_spi_int_enable), (10 bytes).
    Removing nrf_drv_spi.o(.constdata), (16 bytes).
    Removing nrf_drv_uart.o(.rev16_text), (4 bytes).
    Removing nrf_drv_uart.o(.revsh_text), (4 bytes).
    Removing nrf_drv_uart.o(i.nrf_drv_uart_errorsrc_get), (28 bytes).
    Removing nrf_drv_uart.o(i.nrf_drv_uart_rx_abort), (28 bytes).
    Removing nrf_drv_uart.o(i.nrf_drv_uart_rx_disable), (28 bytes).
    Removing nrf_drv_uart.o(i.nrf_drv_uart_tx_abort), (48 bytes).
    Removing nrf_drv_wdt.o(.rev16_text), (4 bytes).
    Removing nrf_drv_wdt.o(.revsh_text), (4 bytes).
    Removing nrf_drv_wdt.o(i.nrf_drv_wdt_channel_feed), (12 bytes).
    Removing nrf_drv_wdt.o(i.nrf_drv_wdt_enable), (36 bytes).
    Removing nrf_drv_wdt.o(i.nrf_drv_wdt_feed), (28 bytes).
    Removing nrf_drv_wdt.o(i.nrf_wdt_reload_request_set), (24 bytes).
    Removing pstorage.o(.rev16_text), (4 bytes).
    Removing pstorage.o(.revsh_text), (4 bytes).
    Removing pstorage.o(i.cmd_queue_enqueue), (132 bytes).
    Removing pstorage.o(i.is_word_aligned), (18 bytes).
    Removing pstorage.o(i.pstorage_block_identifier_get), (164 bytes).
    Removing pstorage.o(i.pstorage_clear), (280 bytes).
    Removing pstorage.o(i.pstorage_load), (252 bytes).
    Removing pstorage.o(i.pstorage_store), (224 bytes).
    Removing pstorage.o(i.pstorage_update), (224 bytes).
    Removing twi_hw_master.o(.rev16_text), (4 bytes).
    Removing twi_hw_master.o(.revsh_text), (4 bytes).
    Removing twi_hw_master.o(.emb_text), (30 bytes).
    Removing twi_hw_master.o(i.delay_us), (26 bytes).
    Removing twi_hw_master.o(i.my_delay_ms), (28 bytes).
    Removing twi_hw_master.o(i.my_get_ms), (2 bytes).
    Removing twi_hw_master.o(i.my_twi_read), (64 bytes).
    Removing twi_hw_master.o(i.my_twi_write), (68 bytes).
    Removing twi_hw_master.o(i.twi_master_clear_bus), (228 bytes).
    Removing twi_hw_master.o(i.twi_master_dis), (20 bytes).
    Removing twi_hw_master.o(i.twi_master_en), (20 bytes).
    Removing twi_hw_master.o(i.twi_master_init), (108 bytes).
    Removing twi_hw_master.o(i.twi_master_read), (272 bytes).
    Removing twi_hw_master.o(i.twi_master_transfer), (76 bytes).
    Removing twi_hw_master.o(i.twi_master_write), (188 bytes).
    Removing twi_hw_master.o(.bss), (50 bytes).
    Removing twi_hw_master.o(.data), (1 bytes).
    Removing app_error.o(.rev16_text), (4 bytes).
    Removing app_error.o(.revsh_text), (4 bytes).
    Removing app_fifo.o(i.app_fifo_read), (106 bytes).
    Removing app_fifo.o(i.app_fifo_write), (110 bytes).
    Removing app_scheduler.o(.rev16_text), (4 bytes).
    Removing app_scheduler.o(.revsh_text), (4 bytes).
    Removing app_scheduler.o(i.app_sched_event_get), (116 bytes).
    Removing app_scheduler.o(i.app_sched_event_put), (276 bytes).
    Removing app_scheduler.o(i.app_sched_execute), (30 bytes).
    Removing app_scheduler.o(i.app_sched_init), (92 bytes).
    Removing app_scheduler.o(i.current_int_priority_get), (92 bytes).
    Removing app_scheduler.o(i.next_index), (24 bytes).
    Removing app_scheduler.o(.data), (14 bytes).
    Removing app_timer.o(.rev16_text), (4 bytes).
    Removing app_timer.o(.revsh_text), (4 bytes).
    Removing app_timer.o(i.app_timer_cnt_diff_compute), (22 bytes).
    Removing app_timer.o(i.app_timer_cnt_get), (14 bytes).
    Removing app_timer.o(i.app_timer_stop_all), (32 bytes).
    Removing app_timer.o(i.timer_stop_all_op_schedule), (64 bytes).
    Removing retarget.o(.rev16_text), (4 bytes).
    Removing retarget.o(.revsh_text), (4 bytes).
    Removing retarget.o(i.fgetc), (22 bytes).
    Removing app_uart_fifo.o(.rev16_text), (4 bytes).
    Removing app_uart_fifo.o(.revsh_text), (4 bytes).
    Removing softdevice_handler.o(.rev16_text), (4 bytes).
    Removing softdevice_handler.o(.revsh_text), (4 bytes).
    Removing softdevice_handler.o(i.softdevice_handler_sd_disable), (28 bytes).

233 unused section(s) (total 14131 bytes) removed from the image.

==============================================================================

Image Symbol Table

    Local Symbols

    Symbol Name                              Value     Ov Type        Size  Object(Section)

    ../clib/angel/boardlib.s                 0x00000000   Number         0  boardinit2.o ABSOLUTE
    ../clib/angel/boardlib.s                 0x00000000   Number         0  boardshut.o ABSOLUTE
    ../clib/angel/boardlib.s                 0x00000000   Number         0  boardinit3.o ABSOLUTE
    ../clib/angel/boardlib.s                 0x00000000   Number         0  boardinit1.o ABSOLUTE
    ../clib/angel/handlers.s                 0x00000000   Number         0  __scatter_copy.o ABSOLUTE
    ../clib/angel/handlers.s                 0x00000000   Number         0  __scatter_zi.o ABSOLUTE
    ../clib/angel/kernel.s                   0x00000000   Number         0  rtexit.o ABSOLUTE
    ../clib/angel/kernel.s                   0x00000000   Number         0  __rtentry.o ABSOLUTE
    ../clib/angel/kernel.s                   0x00000000   Number         0  __rtentry4.o ABSOLUTE
    ../clib/angel/kernel.s                   0x00000000   Number         0  __rtentry2.o ABSOLUTE
    ../clib/angel/kernel.s                   0x00000000   Number         0  rtexit2.o ABSOLUTE
    ../clib/angel/rt.s                       0x00000000   Number         0  rt_div0.o ABSOLUTE
    ../clib/angel/rt.s                       0x00000000   Number         0  aeabi_idiv0_sigfpe.o ABSOLUTE
    ../clib/angel/rt.s                       0x00000000   Number         0  aeabi_idiv0.o ABSOLUTE
    ../clib/angel/rt.s                       0x00000000   Number         0  rt_raise.o ABSOLUTE
    ../clib/angel/scatterp.s                 0x00000000   Number         0  __scatter.o ABSOLUTE
    ../clib/angel/startup.s                  0x00000000   Number         0  __main.o ABSOLUTE
    ../clib/angel/sys.s                      0x00000000   Number         0  sys_stackheap_outer.o ABSOLUTE
    ../clib/angel/sys.s                      0x00000000   Number         0  libspace.o ABSOLUTE
    ../clib/angel/sys.s                      0x00000000   Number         0  use_no_semi.o ABSOLUTE
    ../clib/angel/sys.s                      0x00000000   Number         0  tempstk.o ABSOLUTE
    ../clib/angel/sys.s                      0x00000000   Number         0  indicate_semi.o ABSOLUTE
    ../clib/angel/sysapp.c                   0x00000000   Number         0  sys_command.o ABSOLUTE
    ../clib/angel/sysapp.c                   0x00000000   Number         0  sys_wrch.o ABSOLUTE
    ../clib/angel/sysapp.c                   0x00000000   Number         0  sys_exit.o ABSOLUTE
    ../clib/armsys.c                         0x00000000   Number         0  _get_argv_nomalloc.o ABSOLUTE
    ../clib/armsys.c                         0x00000000   Number         0  argv_veneer.o ABSOLUTE
    ../clib/armsys.c                         0x00000000   Number         0  no_argv.o ABSOLUTE
    ../clib/division.s                       0x00000000   Number         0  aeabi_sdiv_div0.o ABSOLUTE
    ../clib/division.s                       0x00000000   Number         0  aeabi_sdiv.o ABSOLUTE
    ../clib/heapalloc.c                      0x00000000   Number         0  hrguard.o ABSOLUTE
    ../clib/heapaux.c                        0x00000000   Number         0  heapauxi.o ABSOLUTE
    ../clib/libinit.s                        0x00000000   Number         0  libshutdown2.o ABSOLUTE
    ../clib/libinit.s                        0x00000000   Number         0  libshutdown.o ABSOLUTE
    ../clib/libinit.s                        0x00000000   Number         0  libinit.o ABSOLUTE
    ../clib/libinit.s                        0x00000000   Number         0  libinit2.o ABSOLUTE
    ../clib/memcpset.c                       0x00000000   Number         0  rt_memcpy.o ABSOLUTE
    ../clib/memcpset.c                       0x00000000   Number         0  rt_memclr.o ABSOLUTE
    ../clib/memcpset.c                       0x00000000   Number         0  rt_memcpy.o ABSOLUTE
    ../clib/printf.c                         0x00000000   Number         0  _printf_hex_ll.o ABSOLUTE
    ../clib/printf.c                         0x00000000   Number         0  _printf_hex_ptr.o ABSOLUTE
    ../clib/printf.c                         0x00000000   Number         0  noretval__2printf.o ABSOLUTE
    ../clib/printf.c                         0x00000000   Number         0  __printf.o ABSOLUTE
    ../clib/printf.c                         0x00000000   Number         0  _printf_str.o ABSOLUTE
    ../clib/printf.c                         0x00000000   Number         0  __2printf.o ABSOLUTE
    ../clib/printf.c                         0x00000000   Number         0  _printf_hex_int_ll.o ABSOLUTE
    ../clib/printf.c                         0x00000000   Number         0  _printf_char_file.o ABSOLUTE
    ../clib/printf.c                         0x00000000   Number         0  _printf_intcommon.o ABSOLUTE
    ../clib/printf.c                         0x00000000   Number         0  _printf_hex_int_ptr.o ABSOLUTE
    ../clib/printf.c                         0x00000000   Number         0  _printf_char.o ABSOLUTE
    ../clib/printf.c                         0x00000000   Number         0  _printf_hex_ll_ptr.o ABSOLUTE
    ../clib/printf.c                         0x00000000   Number         0  _printf_char_common.o ABSOLUTE
    ../clib/printf.c                         0x00000000   Number         0  _printf_hex_int_ll_ptr.o ABSOLUTE
    ../clib/printf.c                         0x00000000   Number         0  __printf_flags_ss_wp.o ABSOLUTE
    ../clib/printf.c                         0x00000000   Number         0  __printf_ss_wp.o ABSOLUTE
    ../clib/printf.c                         0x00000000   Number         0  __printf_wp.o ABSOLUTE
    ../clib/printf.c                         0x00000000   Number         0  __printf_flags_ss.o ABSOLUTE
    ../clib/printf.c                         0x00000000   Number         0  __printf_ss.o ABSOLUTE
    ../clib/printf.c                         0x00000000   Number         0  __printf_flags.o ABSOLUTE
    ../clib/printf.c                         0x00000000   Number         0  __printf_nopercent.o ABSOLUTE
    ../clib/printf.c                         0x00000000   Number         0  _printf_hex_int.o ABSOLUTE
    ../clib/printf.c                         0x00000000   Number         0  __printf_flags_wp.o ABSOLUTE
    ../clib/printf_percent.s                 0x00000000   Number         0  _printf_percent.o ABSOLUTE
    ../clib/printf_percent.s                 0x00000000   Number         0  _printf_percent_end.o ABSOLUTE
    ../clib/printf_percent.s                 0x00000000   Number         0  _printf_x.o ABSOLUTE
    ../clib/printf_percent.s                 0x00000000   Number         0  _printf_s.o ABSOLUTE
    ../clib/signal.c                         0x00000000   Number         0  __raise.o ABSOLUTE
    ../clib/signal.c                         0x00000000   Number         0  defsig_segv_inner.o ABSOLUTE
    ../clib/signal.c                         0x00000000   Number         0  defsig_general.o ABSOLUTE
    ../clib/signal.c                         0x00000000   Number         0  defsig_other.o ABSOLUTE
    ../clib/signal.c                         0x00000000   Number         0  defsig_fpe_inner.o ABSOLUTE
    ../clib/signal.c                         0x00000000   Number         0  defsig_exit.o ABSOLUTE
    ../clib/signal.c                         0x00000000   Number         0  defsig_fpe_formal.o ABSOLUTE
    ../clib/signal.c                         0x00000000   Number         0  defsig_fpe_outer.o ABSOLUTE
    ../clib/signal.c                         0x00000000   Number         0  defsig_abrt_inner.o ABSOLUTE
    ../clib/signal.c                         0x00000000   Number         0  defsig_rtred_inner.o ABSOLUTE
    ../clib/signal.c                         0x00000000   Number         0  defsig_rtmem_inner.o ABSOLUTE
    ../clib/signal.c                         0x00000000   Number         0  defsig_rtmem_outer.o ABSOLUTE
    ../clib/signal.c                         0x00000000   Number         0  defsig_rtmem_formal.o ABSOLUTE
    ../clib/signal.c                         0x00000000   Number         0  defsig_stak_inner.o ABSOLUTE
    ../clib/signal.c                         0x00000000   Number         0  defsig_pvfn_inner.o ABSOLUTE
    ../clib/signal.c                         0x00000000   Number         0  defsig_cppl_inner.o ABSOLUTE
    ../clib/signal.s                         0x00000000   Number         0  defsig.o ABSOLUTE
    ../clib/stdio.c                          0x00000000   Number         0  ferror_locked.o ABSOLUTE
    ../clib/stdio.c                          0x00000000   Number         0  ferror.o ABSOLUTE
    ../clib/stdlib.c                         0x00000000   Number         0  exit.o ABSOLUTE
    ../clib/string.c                         0x00000000   Number         0  strcmp.o ABSOLUTE
    ../clib/string.c                         0x00000000   Number         0  strlen.o ABSOLUTE
    ../fplib/cfplib/dmul.c                   0x00000000   Number         0  dmul.o ABSOLUTE
    ../fplib/cfplib/ffix.c                   0x00000000   Number         0  dfixi.o ABSOLUTE
    ../fplib/cfplib/fflt.c                   0x00000000   Number         0  dflti.o ABSOLUTE
    ../fplib/cfplib/fpinit.c                 0x00000000   Number         0  fpinit.o ABSOLUTE
    ../fplib/usenofp.s                       0x00000000   Number         0  usenofp.o ABSOLUTE
    ..\APP\main.c                            0x00000000   Number         0  main.o ABSOLUTE
    ..\APP\source\ofo_adc.c                  0x00000000   Number         0  ofo_adc.o ABSOLUTE
    ..\APP\source\ofo_ble_unlock.c           0x00000000   Number         0  ofo_ble_unlock.o ABSOLUTE
    ..\APP\source\ofo_buzz.c                 0x00000000   Number         0  ofo_buzz.o ABSOLUTE
    ..\APP\source\ofo_date.c                 0x00000000   Number         0  ofo_date.o ABSOLUTE
    ..\APP\source\ofo_factory_test.c         0x00000000   Number         0  ofo_factory_test.o ABSOLUTE
    ..\APP\source\ofo_flash.c                0x00000000   Number         0  ofo_flash.o ABSOLUTE
    ..\APP\source\ofo_key_unlock.c           0x00000000   Number         0  ofo_key_unlock.o ABSOLUTE
    ..\APP\source\ofo_led.c                  0x00000000   Number         0  ofo_led.o ABSOLUTE
    ..\APP\source\ofo_lis3dh.c               0x00000000   Number         0  ofo_lis3dh.o ABSOLUTE
    ..\APP\source\ofo_lock.c                 0x00000000   Number         0  ofo_lock.o ABSOLUTE
    ..\APP\source\ofo_uart.c                 0x00000000   Number         0  ofo_uart.o ABSOLUTE
    ..\APP\source\ofo_wdt.c                  0x00000000   Number         0  ofo_wdt.o ABSOLUTE
    ..\Device\source\arm_startup_nrf51.s     0x00000000   Number         0  arm_startup_nrf51.o ABSOLUTE
    ..\Device\source\system_nrf51.c          0x00000000   Number         0  system_nrf51.o ABSOLUTE
    ..\\APP\\main.c                          0x00000000   Number         0  main.o ABSOLUTE
    ..\\APP\\source\\ofo_adc.c               0x00000000   Number         0  ofo_adc.o ABSOLUTE
    ..\\APP\\source\\ofo_buzz.c              0x00000000   Number         0  ofo_buzz.o ABSOLUTE
    ..\\APP\\source\\ofo_factory_test.c      0x00000000   Number         0  ofo_factory_test.o ABSOLUTE
    ..\\APP\\source\\ofo_flash.c             0x00000000   Number         0  ofo_flash.o ABSOLUTE
    ..\\APP\\source\\ofo_key_unlock.c        0x00000000   Number         0  ofo_key_unlock.o ABSOLUTE
    ..\\APP\\source\\ofo_led.c               0x00000000   Number         0  ofo_led.o ABSOLUTE
    ..\\APP\\source\\ofo_lis3dh.c            0x00000000   Number         0  ofo_lis3dh.o ABSOLUTE
    ..\\APP\\source\\ofo_lock.c              0x00000000   Number         0  ofo_lock.o ABSOLUTE
    ..\\APP\\source\\ofo_uart.c              0x00000000   Number         0  ofo_uart.o ABSOLUTE
    ..\\APP\\source\\ofo_wdt.c               0x00000000   Number         0  ofo_wdt.o ABSOLUTE
    ..\\Device\\source\\system_nrf51.c       0x00000000   Number         0  system_nrf51.o ABSOLUTE
    ..\\nRF_BLE\\src\\ble_advertising.c      0x00000000   Number         0  ble_advertising.o ABSOLUTE
    ..\\nRF_Drivers\\src\\nrf_adc.c          0x00000000   Number         0  nrf_adc.o ABSOLUTE
    ..\\nRF_Drivers\\src\\nrf_delay.c        0x00000000   Number         0  nrf_delay.o ABSOLUTE
    ..\\nRF_Drivers\\src\\nrf_drv_common.c   0x00000000   Number         0  nrf_drv_common.o ABSOLUTE
    ..\\nRF_Drivers\\src\\nrf_drv_gpiote.c   0x00000000   Number         0  nrf_drv_gpiote.o ABSOLUTE
    ..\\nRF_Drivers\\src\\nrf_drv_spi.c      0x00000000   Number         0  nrf_drv_spi.o ABSOLUTE
    ..\\nRF_Drivers\\src\\nrf_drv_uart.c     0x00000000   Number         0  nrf_drv_uart.o ABSOLUTE
    ..\\nRF_Drivers\\src\\nrf_drv_wdt.c      0x00000000   Number         0  nrf_drv_wdt.o ABSOLUTE
    ..\\nRF_Drivers\\src\\pstorage.c         0x00000000   Number         0  pstorage.o ABSOLUTE
    ..\\nRF_Drivers\\src\\twi_hw_master.c    0x00000000   Number         0  twi_hw_master.o ABSOLUTE
    ..\\nRF_Libraries\\src\\app_error.c      0x00000000   Number         0  app_error.o ABSOLUTE
    ..\\nRF_Libraries\\src\\app_scheduler.c  0x00000000   Number         0  app_scheduler.o ABSOLUTE
    ..\\nRF_Libraries\\src\\app_timer.c      0x00000000   Number         0  app_timer.o ABSOLUTE
    ..\\nRF_Libraries\\src\\app_uart_fifo.c  0x00000000   Number         0  app_uart_fifo.o ABSOLUTE
    ..\\nRF_Libraries\\src\\retarget.c       0x00000000   Number         0  retarget.o ABSOLUTE
    ..\\nRF_SoftDevice\\src\\softdevice_handler.c 0x00000000   Number         0  softdevice_handler.o ABSOLUTE
    ..\nRF_BLE\src\ble_advdata.c             0x00000000   Number         0  ble_advdata.o ABSOLUTE
    ..\nRF_BLE\src\ble_advertising.c         0x00000000   Number         0  ble_advertising.o ABSOLUTE
    ..\nRF_BLE\src\ble_conn_params.c         0x00000000   Number         0  ble_conn_params.o ABSOLUTE
    ..\nRF_BLE\src\ble_nus.c                 0x00000000   Number         0  ble_nus.o ABSOLUTE
    ..\nRF_BLE\src\ble_srv_common.c          0x00000000   Number         0  ble_srv_common.o ABSOLUTE
    ..\nRF_Drivers\src\nrf_adc.c             0x00000000   Number         0  nrf_adc.o ABSOLUTE
    ..\nRF_Drivers\src\nrf_delay.c           0x00000000   Number         0  nrf_delay.o ABSOLUTE
    ..\nRF_Drivers\src\nrf_drv_common.c      0x00000000   Number         0  nrf_drv_common.o ABSOLUTE
    ..\nRF_Drivers\src\nrf_drv_gpiote.c      0x00000000   Number         0  nrf_drv_gpiote.o ABSOLUTE
    ..\nRF_Drivers\src\nrf_drv_spi.c         0x00000000   Number         0  nrf_drv_spi.o ABSOLUTE
    ..\nRF_Drivers\src\nrf_drv_uart.c        0x00000000   Number         0  nrf_drv_uart.o ABSOLUTE
    ..\nRF_Drivers\src\nrf_drv_wdt.c         0x00000000   Number         0  nrf_drv_wdt.o ABSOLUTE
    ..\nRF_Drivers\src\pstorage.c            0x00000000   Number         0  pstorage.o ABSOLUTE
    ..\nRF_Drivers\src\twi_hw_master.c       0x00000000   Number         0  twi_hw_master.o ABSOLUTE
    ..\nRF_Libraries\src\app_error.c         0x00000000   Number         0  app_error.o ABSOLUTE
    ..\nRF_Libraries\src\app_fifo.c          0x00000000   Number         0  app_fifo.o ABSOLUTE
    ..\nRF_Libraries\src\app_scheduler.c     0x00000000   Number         0  app_scheduler.o ABSOLUTE
    ..\nRF_Libraries\src\app_timer.c         0x00000000   Number         0  app_timer.o ABSOLUTE
    ..\nRF_Libraries\src\app_trace.c         0x00000000   Number         0  app_trace.o ABSOLUTE
    ..\nRF_Libraries\src\app_uart_fifo.c     0x00000000   Number         0  app_uart_fifo.o ABSOLUTE
    ..\nRF_Libraries\src\nrf_assert.c        0x00000000   Number         0  nrf_assert.o ABSOLUTE
    ..\nRF_Libraries\src\retarget.c          0x00000000   Number         0  retarget.o ABSOLUTE
    ..\nRF_SoftDevice\src\softdevice_handler.c 0x00000000   Number         0  softdevice_handler.o ABSOLUTE
    dc.s                                     0x00000000   Number         0  dc.o ABSOLUTE
    RESET                                    0x00018000   Section      192  arm_startup_nrf51.o(RESET)
    !!!main                                  0x000180c0   Section        8  __main.o(!!!main)
    !!!scatter                               0x000180c8   Section       60  __scatter.o(!!!scatter)
    !!handler_copy                           0x00018104   Section       26  __scatter_copy.o(!!handler_copy)
    !!handler_zi                             0x00018120   Section       28  __scatter_zi.o(!!handler_zi)
    .ARM.Collect$$_printf_percent$$00000000  0x0001813c   Section        2  _printf_percent.o(.ARM.Collect$$_printf_percent$$00000000)
    .ARM.Collect$$_printf_percent$$0000000C  0x0001813e   Section       10  _printf_x.o(.ARM.Collect$$_printf_percent$$0000000C)
    .ARM.Collect$$_printf_percent$$00000017  0x00018148   Section        4  _printf_percent_end.o(.ARM.Collect$$_printf_percent$$00000017)
    .ARM.Collect$$libinit$$00000000          0x0001814c   Section        2  libinit.o(.ARM.Collect$$libinit$$00000000)
    .ARM.Collect$$libinit$$00000002          0x0001814e   Section        0  libinit2.o(.ARM.Collect$$libinit$$00000002)
    .ARM.Collect$$libinit$$00000004          0x0001814e   Section        0  libinit2.o(.ARM.Collect$$libinit$$00000004)
    .ARM.Collect$$libinit$$0000000A          0x0001814e   Section        0  libinit2.o(.ARM.Collect$$libinit$$0000000A)
    .ARM.Collect$$libinit$$0000000C          0x0001814e   Section        0  libinit2.o(.ARM.Collect$$libinit$$0000000C)
    .ARM.Collect$$libinit$$0000000E          0x0001814e   Section        0  libinit2.o(.ARM.Collect$$libinit$$0000000E)
    .ARM.Collect$$libinit$$00000011          0x0001814e   Section        0  libinit2.o(.ARM.Collect$$libinit$$00000011)
    .ARM.Collect$$libinit$$00000013          0x0001814e   Section        0  libinit2.o(.ARM.Collect$$libinit$$00000013)
    .ARM.Collect$$libinit$$00000015          0x0001814e   Section        0  libinit2.o(.ARM.Collect$$libinit$$00000015)
    .ARM.Collect$$libinit$$00000017          0x0001814e   Section        0  libinit2.o(.ARM.Collect$$libinit$$00000017)
    .ARM.Collect$$libinit$$00000019          0x0001814e   Section        0  libinit2.o(.ARM.Collect$$libinit$$00000019)
    .ARM.Collect$$libinit$$0000001B          0x0001814e   Section        0  libinit2.o(.ARM.Collect$$libinit$$0000001B)
    .ARM.Collect$$libinit$$0000001D          0x0001814e   Section        0  libinit2.o(.ARM.Collect$$libinit$$0000001D)
    .ARM.Collect$$libinit$$0000001F          0x0001814e   Section        0  libinit2.o(.ARM.Collect$$libinit$$0000001F)
    .ARM.Collect$$libinit$$00000021          0x0001814e   Section        0  libinit2.o(.ARM.Collect$$libinit$$00000021)
    .ARM.Collect$$libinit$$00000023          0x0001814e   Section        0  libinit2.o(.ARM.Collect$$libinit$$00000023)
    .ARM.Collect$$libinit$$00000025          0x0001814e   Section        0  libinit2.o(.ARM.Collect$$libinit$$00000025)
    .ARM.Collect$$libinit$$0000002C          0x0001814e   Section        0  libinit2.o(.ARM.Collect$$libinit$$0000002C)
    .ARM.Collect$$libinit$$0000002E          0x0001814e   Section        0  libinit2.o(.ARM.Collect$$libinit$$0000002E)
    .ARM.Collect$$libinit$$00000030          0x0001814e   Section        0  libinit2.o(.ARM.Collect$$libinit$$00000030)
    .ARM.Collect$$libinit$$00000032          0x0001814e   Section        0  libinit2.o(.ARM.Collect$$libinit$$00000032)
    .ARM.Collect$$libinit$$00000033          0x0001814e   Section        2  libinit2.o(.ARM.Collect$$libinit$$00000033)
    .ARM.Collect$$libshutdown$$00000000      0x00018150   Section        2  libshutdown.o(.ARM.Collect$$libshutdown$$00000000)
    .ARM.Collect$$libshutdown$$00000003      0x00018152   Section        0  libshutdown2.o(.ARM.Collect$$libshutdown$$00000003)
    .ARM.Collect$$libshutdown$$00000006      0x00018152   Section        0  libshutdown2.o(.ARM.Collect$$libshutdown$$00000006)
    .ARM.Collect$$libshutdown$$00000009      0x00018152   Section        0  libshutdown2.o(.ARM.Collect$$libshutdown$$00000009)
    .ARM.Collect$$libshutdown$$0000000B      0x00018152   Section        0  libshutdown2.o(.ARM.Collect$$libshutdown$$0000000B)
    .ARM.Collect$$libshutdown$$0000000E      0x00018152   Section        0  libshutdown2.o(.ARM.Collect$$libshutdown$$0000000E)
    .ARM.Collect$$libshutdown$$0000000F      0x00018152   Section        2  libshutdown2.o(.ARM.Collect$$libshutdown$$0000000F)
    .ARM.Collect$$rtentry$$00000000          0x00018154   Section        0  __rtentry.o(.ARM.Collect$$rtentry$$00000000)
    .ARM.Collect$$rtentry$$00000002          0x00018154   Section        0  __rtentry2.o(.ARM.Collect$$rtentry$$00000002)
    .ARM.Collect$$rtentry$$00000004          0x00018154   Section        6  __rtentry4.o(.ARM.Collect$$rtentry$$00000004)
    .ARM.Collect$$rtentry$$00000009          0x0001815a   Section        0  __rtentry2.o(.ARM.Collect$$rtentry$$00000009)
    .ARM.Collect$$rtentry$$0000000A          0x0001815a   Section        4  __rtentry2.o(.ARM.Collect$$rtentry$$0000000A)
    .ARM.Collect$$rtentry$$0000000C          0x0001815e   Section        0  __rtentry2.o(.ARM.Collect$$rtentry$$0000000C)
    .ARM.Collect$$rtentry$$0000000D          0x0001815e   Section        8  __rtentry2.o(.ARM.Collect$$rtentry$$0000000D)
    .ARM.Collect$$rtexit$$00000000           0x00018166   Section        2  rtexit.o(.ARM.Collect$$rtexit$$00000000)
    .ARM.Collect$$rtexit$$00000002           0x00018168   Section        0  rtexit2.o(.ARM.Collect$$rtexit$$00000002)
    .ARM.Collect$$rtexit$$00000003           0x00018168   Section        4  rtexit2.o(.ARM.Collect$$rtexit$$00000003)
    .ARM.Collect$$rtexit$$00000004           0x0001816c   Section        6  rtexit2.o(.ARM.Collect$$rtexit$$00000004)
    .emb_text                                0x00018174   Section       30  nrf_delay.o(.emb_text)
    .emb_text                                0x00018194   Section       30  app_timer.o(.emb_text)
    .emb_text                                0x000181b4   Section       56  rt_memcpy.o(.emb_text)
    .text                                    0x000181ec   Section       84  arm_startup_nrf51.o(.text)
    .text                                    0x00018240   Section        0  noretval__2printf.o(.text)
    .text                                    0x0001825c   Section        0  __printf.o(.text)
    .text                                    0x000182c8   Section        0  _printf_hex_int.o(.text)
    .text                                    0x00018320   Section        0  rt_memcpy.o(.text)
    .text                                    0x000183a2   Section        0  rt_memclr.o(.text)
    .text                                    0x000183e4   Section        0  strcmp.o(.text)
    .text                                    0x0001846c   Section      346  aeabi_sdiv.o(.text)
    .text                                    0x000185c6   Section        0  heapauxi.o(.text)
    .text                                    0x000185cc   Section        0  dfixi.o(.text)
    .text                                    0x00018638   Section        0  dflti.o(.text)
    .text                                    0x00018690   Section        0  dmul.o(.text)
    .text                                    0x000188d8   Section        0  _printf_intcommon.o(.text)
    .text                                    0x00018988   Section        0  _printf_char_file.o(.text)
    .text                                    0x000189b0   Section        0  _printf_char_common.o(.text)
    _printf_input_char                       0x000189b1   Thumb Code    10  _printf_char_common.o(.text)
    .text                                    0x000189e0   Section        0  ferror.o(.text)
    .text                                    0x000189e8   Section       62  sys_stackheap_outer.o(.text)
    .text                                    0x00018a26   Section        0  exit.o(.text)
    .text                                    0x00018a34   Section        8  libspace.o(.text)
    .text                                    0x00018a3c   Section        0  sys_exit.o(.text)
    .text                                    0x00018a48   Section        2  use_no_semi.o(.text)
    .text                                    0x00018a4a   Section        0  indicate_semi.o(.text)
    i.ADC_IRQHandler                         0x00018a4c   Section        0  ofo_adc.o(i.ADC_IRQHandler)
    i.Buzz_init                              0x00018a8c   Section        0  ofo_buzz.o(i.Buzz_init)
    i.GPIOTE_IRQHandler                      0x00018ac8   Section        0  nrf_drv_gpiote.o(i.GPIOTE_IRQHandler)
    i.KeyCVoice                              0x00018c54   Section        0  ofo_buzz.o(i.KeyCVoice)
    i.KeyVoice                               0x00018c68   Section        0  ofo_buzz.o(i.KeyVoice)
    i.LED_flash                              0x00018c7c   Section        0  ofo_led.o(i.LED_flash)
    i.LED_flash_init                         0x00018ca8   Section        0  ofo_led.o(i.LED_flash_init)
    i.LED_timer_handler                      0x00018cd8   Section        0  ofo_led.o(i.LED_timer_handler)
    LED_timer_handler                        0x00018cd9   Thumb Code   156  ofo_led.o(i.LED_timer_handler)
    i.NVIC_ClearPendingIRQ                   0x00018d8c   Section        0  app_timer.o(i.NVIC_ClearPendingIRQ)
    NVIC_ClearPendingIRQ                     0x00018d8d   Thumb Code    14  app_timer.o(i.NVIC_ClearPendingIRQ)
    i.NVIC_EnableIRQ                         0x00018da0   Section        0  app_timer.o(i.NVIC_EnableIRQ)
    NVIC_EnableIRQ                           0x00018da1   Thumb Code    14  app_timer.o(i.NVIC_EnableIRQ)
    i.NVIC_SetPendingIRQ                     0x00018db4   Section        0  app_timer.o(i.NVIC_SetPendingIRQ)
    NVIC_SetPendingIRQ                       0x00018db5   Thumb Code    14  app_timer.o(i.NVIC_SetPendingIRQ)
    i.NVIC_SetPriority                       0x00018dc8   Section        0  ofo_adc.o(i.NVIC_SetPriority)
    NVIC_SetPriority                         0x00018dc9   Thumb Code   110  ofo_adc.o(i.NVIC_SetPriority)
    i.NVIC_SetPriority                       0x00018e40   Section        0  nrf_drv_common.o(i.NVIC_SetPriority)
    NVIC_SetPriority                         0x00018e41   Thumb Code   110  nrf_drv_common.o(i.NVIC_SetPriority)
    i.NVIC_SetPriority                       0x00018eb8   Section        0  app_timer.o(i.NVIC_SetPriority)
    NVIC_SetPriority                         0x00018eb9   Thumb Code   110  app_timer.o(i.NVIC_SetPriority)
    i.OpenLockTime                           0x00018f30   Section        0  ofo_lock.o(i.OpenLockTime)
    i.PlayVoice                              0x00018f70   Section        0  ofo_buzz.o(i.PlayVoice)
    i.RTC1_IRQHandler                        0x00018fdc   Section        0  app_timer.o(i.RTC1_IRQHandler)
    i.SPI0_TWI0_IRQHandler                   0x00019004   Section        0  nrf_drv_spi.o(i.SPI0_TWI0_IRQHandler)
    i.SWI0_IRQHandler                        0x00019018   Section        0  app_timer.o(i.SWI0_IRQHandler)
    i.SWI2_IRQHandler                        0x00019020   Section        0  softdevice_handler.o(i.SWI2_IRQHandler)
    i.SystemInit                             0x00019058   Section        0  system_nrf51.o(i.SystemInit)
    i.UART0_IRQHandler                       0x00019090   Section        0  nrf_drv_uart.o(i.UART0_IRQHandler)
    i.VoicePasswordErr                       0x000191c8   Section        0  ofo_buzz.o(i.VoicePasswordErr)
    i.VoicePasswordOK                        0x000191dc   Section        0  ofo_buzz.o(i.VoicePasswordOK)
    i.WDT_IRQHandler                         0x000191f0   Section        0  nrf_drv_wdt.o(i.WDT_IRQHandler)
    i.__ARM_common_switch8                   0x0001922c   Section        0  ofo_led.o(i.__ARM_common_switch8)
    i.adc_config                             0x00019248   Section        0  ofo_adc.o(i.adc_config)
    i.adv_data_encode                        0x000192bc   Section        0  ble_advdata.o(i.adv_data_encode)
    i.advdata_check                          0x00019478   Section        0  ble_advdata.o(i.advdata_check)
    advdata_check                            0x00019479   Thumb Code    20  ble_advdata.o(i.advdata_check)
    i.advertising_init                       0x0001948c   Section        0  main.o(i.advertising_init)
    advertising_init                         0x0001948d   Thumb Code   136  main.o(i.advertising_init)
    i.all_led_flash_control                  0x00019528   Section        0  ofo_led.o(i.all_led_flash_control)
    all_led_flash_control                    0x00019529   Thumb Code    32  ofo_led.o(i.all_led_flash_control)
    i.app_error_handler                      0x00019548   Section        0  app_error.o(i.app_error_handler)
    i.app_fifo_flush                         0x00019580   Section        0  app_fifo.o(i.app_fifo_flush)
    i.app_fifo_get                           0x0001958a   Section        0  app_fifo.o(i.app_fifo_get)
    i.app_fifo_init                          0x000195aa   Section        0  app_fifo.o(i.app_fifo_init)
    i.app_fifo_put                           0x000195d4   Section        0  app_fifo.o(i.app_fifo_put)
    i.app_notify                             0x000195f8   Section        0  pstorage.o(i.app_notify)
    app_notify                               0x000195f9   Thumb Code    38  pstorage.o(i.app_notify)
    i.app_notify_error_state_transit         0x00019628   Section        0  pstorage.o(i.app_notify_error_state_transit)
    app_notify_error_state_transit           0x00019629   Thumb Code    32  pstorage.o(i.app_notify_error_state_transit)
    i.app_timer_create                       0x0001964c   Section        0  app_timer.o(i.app_timer_create)
    i.app_timer_init                         0x0001968c   Section        0  app_timer.o(i.app_timer_init)
    i.app_timer_start                        0x00019744   Section        0  app_timer.o(i.app_timer_start)
    i.app_timer_stop                         0x0001979c   Section        0  app_timer.o(i.app_timer_stop)
    i.app_uart_close                         0x000197d4   Section        0  app_uart_fifo.o(i.app_uart_close)
    i.app_uart_flush                         0x000197e0   Section        0  app_uart_fifo.o(i.app_uart_flush)
    i.app_uart_get                           0x00019810   Section        0  app_uart_fifo.o(i.app_uart_get)
    i.app_uart_init                          0x00019848   Section        0  app_uart_fifo.o(i.app_uart_init)
    i.app_uart_put                           0x00019908   Section        0  app_uart_fifo.o(i.app_uart_put)
    i.appearance_encode                      0x00019934   Section        0  ble_advdata.o(i.appearance_encode)
    appearance_encode                        0x00019935   Thumb Code    80  ble_advdata.o(i.appearance_encode)
    i.apply_config                           0x00019984   Section        0  nrf_drv_uart.o(i.apply_config)
    apply_config                             0x00019985   Thumb Code   106  nrf_drv_uart.o(i.apply_config)
    i.ble_advdata_set                        0x000199f4   Section        0  ble_advdata.o(i.ble_advdata_set)
    i.ble_advertising_init                   0x00019a7c   Section        0  ble_advertising.o(i.ble_advertising_init)
    i.ble_advertising_on_ble_evt             0x00019bf0   Section        0  ble_advertising.o(i.ble_advertising_on_ble_evt)
    i.ble_advertising_peer_address_clear     0x00019cf4   Section        0  ble_advertising.o(i.ble_advertising_peer_address_clear)
    ble_advertising_peer_address_clear       0x00019cf5   Thumb Code    12  ble_advertising.o(i.ble_advertising_peer_address_clear)
    i.ble_advertising_start                  0x00019d04   Section        0  ble_advertising.o(i.ble_advertising_start)
    i.ble_conn_params_init                   0x00019fc0   Section        0  ble_conn_params.o(i.ble_conn_params_init)
    i.ble_conn_params_on_ble_evt             0x0001a038   Section        0  ble_conn_params.o(i.ble_conn_params_on_ble_evt)
    i.ble_device_addr_encode                 0x0001a076   Section        0  ble_advdata.o(i.ble_device_addr_encode)
    ble_device_addr_encode                   0x0001a077   Thumb Code   108  ble_advdata.o(i.ble_device_addr_encode)
    i.ble_evt_dispatch                       0x0001a0e4   Section        0  main.o(i.ble_evt_dispatch)
    ble_evt_dispatch                         0x0001a0e5   Thumb Code    32  main.o(i.ble_evt_dispatch)
    i.ble_nus_init                           0x0001a108   Section        0  ble_nus.o(i.ble_nus_init)
    i.ble_nus_on_ble_evt                     0x0001a18c   Section        0  ble_nus.o(i.ble_nus_on_ble_evt)
    i.ble_stack_init                         0x0001a1d4   Section        0  main.o(i.ble_stack_init)
    ble_stack_init                           0x0001a1d5   Thumb Code   150  main.o(i.ble_stack_init)
    i.button_event_handler                   0x0001a278   Section        0  ofo_key_unlock.o(i.button_event_handler)
    i.buzz_timer_handler                     0x0001a410   Section        0  ofo_buzz.o(i.buzz_timer_handler)
    buzz_timer_handler                       0x0001a411   Thumb Code   122  ofo_buzz.o(i.buzz_timer_handler)
    i.channel_free                           0x0001a49c   Section        0  nrf_drv_gpiote.o(i.channel_free)
    channel_free                             0x0001a49d   Thumb Code    26  nrf_drv_gpiote.o(i.channel_free)
    i.channel_handler_get                    0x0001a4bc   Section        0  nrf_drv_gpiote.o(i.channel_handler_get)
    channel_handler_get                      0x0001a4bd   Thumb Code    10  nrf_drv_gpiote.o(i.channel_handler_get)
    i.channel_port_alloc                     0x0001a4cc   Section        0  nrf_drv_gpiote.o(i.channel_port_alloc)
    channel_port_alloc                       0x0001a4cd   Thumb Code   116  nrf_drv_gpiote.o(i.channel_port_alloc)
    i.channel_port_get                       0x0001a544   Section        0  nrf_drv_gpiote.o(i.channel_port_get)
    channel_port_get                         0x0001a545   Thumb Code     8  nrf_drv_gpiote.o(i.channel_port_get)
    i.clear_operation_execute                0x0001a550   Section        0  pstorage.o(i.clear_operation_execute)
    clear_operation_execute                  0x0001a551   Thumb Code   254  pstorage.o(i.clear_operation_execute)
    i.clear_post_processing_run              0x0001a664   Section        0  pstorage.o(i.clear_post_processing_run)
    clear_post_processing_run                0x0001a665   Thumb Code    34  pstorage.o(i.clear_post_processing_run)
    i.cmd_process                            0x0001a68c   Section        0  pstorage.o(i.cmd_process)
    cmd_process                              0x0001a68d   Thumb Code    62  pstorage.o(i.cmd_process)
    i.cmd_queue_dequeue                      0x0001a6d4   Section        0  pstorage.o(i.cmd_queue_dequeue)
    cmd_queue_dequeue                        0x0001a6d5   Thumb Code    16  pstorage.o(i.cmd_queue_dequeue)
    i.cmd_queue_element_init                 0x0001a6e8   Section        0  pstorage.o(i.cmd_queue_element_init)
    cmd_queue_element_init                   0x0001a6e9   Thumb Code    56  pstorage.o(i.cmd_queue_element_init)
    i.cmd_queue_init                         0x0001a724   Section        0  pstorage.o(i.cmd_queue_init)
    cmd_queue_init                           0x0001a725   Thumb Code    28  pstorage.o(i.cmd_queue_init)
    i.command_end_procedure_run              0x0001a744   Section        0  pstorage.o(i.command_end_procedure_run)
    command_end_procedure_run                0x0001a745   Thumb Code    34  pstorage.o(i.command_end_procedure_run)
    i.command_queue_element_consume          0x0001a76c   Section        0  pstorage.o(i.command_queue_element_consume)
    command_queue_element_consume            0x0001a76d   Thumb Code    40  pstorage.o(i.command_queue_element_consume)
    i.compare_reg_update                     0x0001a798   Section        0  app_timer.o(i.compare_reg_update)
    compare_reg_update                       0x0001a799   Thumb Code   126  app_timer.o(i.compare_reg_update)
    i.conn_int_check                         0x0001a824   Section        0  ble_advdata.o(i.conn_int_check)
    conn_int_check                           0x0001a825   Thumb Code    88  ble_advdata.o(i.conn_int_check)
    i.conn_int_encode                        0x0001a880   Section        0  ble_advdata.o(i.conn_int_encode)
    conn_int_encode                          0x0001a881   Thumb Code   102  ble_advdata.o(i.conn_int_encode)
    i.conn_params_error_handler              0x0001a8e6   Section        0  main.o(i.conn_params_error_handler)
    conn_params_error_handler                0x0001a8e7   Thumb Code    20  main.o(i.conn_params_error_handler)
    i.conn_params_init                       0x0001a8fc   Section        0  main.o(i.conn_params_init)
    conn_params_init                         0x0001a8fd   Thumb Code    84  main.o(i.conn_params_init)
    i.conn_params_negotiation                0x0001a958   Section        0  ble_conn_params.o(i.conn_params_negotiation)
    conn_params_negotiation                  0x0001a959   Thumb Code   126  ble_conn_params.o(i.conn_params_negotiation)
    i.current_int_priority_get               0x0001a9ec   Section        0  nrf_drv_wdt.o(i.current_int_priority_get)
    current_int_priority_get                 0x0001a9ed   Thumb Code    84  nrf_drv_wdt.o(i.current_int_priority_get)
    i.current_int_priority_get               0x0001aa48   Section        0  app_timer.o(i.current_int_priority_get)
    current_int_priority_get                 0x0001aa49   Thumb Code    84  app_timer.o(i.current_int_priority_get)
    i.data_page_erase_state_run              0x0001aaa4   Section        0  pstorage.o(i.data_page_erase_state_run)
    data_page_erase_state_run                0x0001aaa5   Thumb Code   116  pstorage.o(i.data_page_erase_state_run)
    i.data_to_swap_write_state_run           0x0001ab28   Section        0  pstorage.o(i.data_to_swap_write_state_run)
    data_to_swap_write_state_run             0x0001ab29   Thumb Code    52  pstorage.o(i.data_to_swap_write_state_run)
    i.elapsed_ticks_acquire                  0x0001ab60   Section        0  app_timer.o(i.elapsed_ticks_acquire)
    elapsed_ticks_acquire                    0x0001ab61   Thumb Code    82  app_timer.o(i.elapsed_ticks_acquire)
    i.erase_sub_state_sm_run                 0x0001abc4   Section        0  pstorage.o(i.erase_sub_state_sm_run)
    erase_sub_state_sm_run                   0x0001abc5   Thumb Code    54  pstorage.o(i.erase_sub_state_sm_run)
    i.expired_timers_handler                 0x0001ac08   Section        0  app_timer.o(i.expired_timers_handler)
    expired_timers_handler                   0x0001ac09   Thumb Code    86  app_timer.o(i.expired_timers_handler)
    i.fifo_get                               0x0001ac64   Section        0  app_fifo.o(i.fifo_get)
    fifo_get                                 0x0001ac65   Thumb Code    20  app_fifo.o(i.fifo_get)
    i.fifo_length                            0x0001ac78   Section        0  app_fifo.o(i.fifo_length)
    fifo_length                              0x0001ac79   Thumb Code    10  app_fifo.o(i.fifo_length)
    i.fifo_length                            0x0001ac82   Section        0  app_uart_fifo.o(i.fifo_length)
    fifo_length                              0x0001ac83   Thumb Code    10  app_uart_fifo.o(i.fifo_length)
    i.fifo_put                               0x0001ac8c   Section        0  app_fifo.o(i.fifo_put)
    fifo_put                                 0x0001ac8d   Thumb Code    18  app_fifo.o(i.fifo_put)
    i.finish_transfer                        0x0001ac9e   Section        0  nrf_drv_spi.o(i.finish_transfer)
    finish_transfer                          0x0001ac9f   Thumb Code    26  nrf_drv_spi.o(i.finish_transfer)
    i.flags_encode                           0x0001acb8   Section        0  ble_advdata.o(i.flags_encode)
    flags_encode                             0x0001acb9   Thumb Code    54  ble_advdata.o(i.flags_encode)
    i.flash_api_err_code_process             0x0001acf0   Section        0  pstorage.o(i.flash_api_err_code_process)
    flash_api_err_code_process               0x0001acf1   Thumb Code    42  pstorage.o(i.flash_api_err_code_process)
    i.flash_init                             0x0001ad20   Section        0  ofo_flash.o(i.flash_init)
    i.flash_operation_failure_run            0x0001ad30   Section        0  pstorage.o(i.flash_operation_failure_run)
    flash_operation_failure_run              0x0001ad31   Thumb Code    52  pstorage.o(i.flash_operation_failure_run)
    i.flash_operation_success_run            0x0001ad70   Section        0  pstorage.o(i.flash_operation_success_run)
    flash_operation_success_run              0x0001ad71   Thumb Code    44  pstorage.o(i.flash_operation_success_run)
    i.flash_page_erase                       0x0001ada0   Section        0  pstorage.o(i.flash_page_erase)
    flash_page_erase                         0x0001ada1   Thumb Code    16  pstorage.o(i.flash_page_erase)
    i.flash_pstorage_cb_handler              0x0001adb0   Section        0  ofo_flash.o(i.flash_pstorage_cb_handler)
    flash_pstorage_cb_handler                0x0001adb1   Thumb Code    76  ofo_flash.o(i.flash_pstorage_cb_handler)
    i.flash_regeist                          0x0001ae0c   Section        0  ofo_flash.o(i.flash_regeist)
    i.flash_write                            0x0001ae30   Section        0  pstorage.o(i.flash_write)
    flash_write                              0x0001ae31   Thumb Code    24  pstorage.o(i.flash_write)
    i.fputc                                  0x0001ae48   Section        0  retarget.o(i.fputc)
    i.gap_params_init                        0x0001ae58   Section        0  main.o(i.gap_params_init)
    gap_params_init                          0x0001ae59   Thumb Code   122  main.o(i.gap_params_init)
    i.gpio_init                              0x0001aee0   Section        0  main.o(i.gpio_init)
    i.gpiote_int_init                        0x0001af50   Section        0  ofo_key_unlock.o(i.gpiote_int_init)
    i.head_restore_state_run                 0x0001b09c   Section        0  pstorage.o(i.head_restore_state_run)
    head_restore_state_run                   0x0001b09d   Thumb Code    98  pstorage.o(i.head_restore_state_run)
    i.intern_softdevice_events_execute       0x0001b10c   Section        0  softdevice_handler.o(i.intern_softdevice_events_execute)
    i.irq_handler_spi                        0x0001b1c8   Section        0  nrf_drv_spi.o(i.irq_handler_spi)
    irq_handler_spi                          0x0001b1c9   Thumb Code    36  nrf_drv_spi.o(i.irq_handler_spi)
    i.is_conn_params_ok                      0x0001b1ec   Section        0  ble_conn_params.o(i.is_conn_params_ok)
    is_conn_params_ok                        0x0001b1ed   Thumb Code    30  ble_conn_params.o(i.is_conn_params_ok)
    i.is_disabled_in_debug_needed            0x0001b210   Section        0  system_nrf51.o(i.is_disabled_in_debug_needed)
    is_disabled_in_debug_needed              0x0001b211   Thumb Code    52  system_nrf51.o(i.is_disabled_in_debug_needed)
    i.is_manual_peripheral_setup_needed      0x0001b248   Section        0  system_nrf51.o(i.is_manual_peripheral_setup_needed)
    is_manual_peripheral_setup_needed        0x0001b249   Thumb Code   104  system_nrf51.o(i.is_manual_peripheral_setup_needed)
    i.is_page_erase_required                 0x0001b2b4   Section        0  pstorage.o(i.is_page_erase_required)
    is_page_erase_required                   0x0001b2b5   Thumb Code    76  pstorage.o(i.is_page_erase_required)
    i.is_tail_data_page_swap_required        0x0001b30c   Section        0  pstorage.o(i.is_tail_data_page_swap_required)
    is_tail_data_page_swap_required          0x0001b30d   Thumb Code    68  pstorage.o(i.is_tail_data_page_swap_required)
    i.key_unlock_init                        0x0001b35c   Section        0  ofo_key_unlock.o(i.key_unlock_init)
    i.key_unlock_timer_handler               0x0001b390   Section        0  ofo_key_unlock.o(i.key_unlock_timer_handler)
    key_unlock_timer_handler                 0x0001b391   Thumb Code    64  ofo_key_unlock.o(i.key_unlock_timer_handler)
    i.le_role_encode                         0x0001b3e4   Section        0  ble_advdata.o(i.le_role_encode)
    le_role_encode                           0x0001b3e5   Thumb Code   106  ble_advdata.o(i.le_role_encode)
    i.led_action_stop                        0x0001b450   Section        0  ofo_led.o(i.led_action_stop)
    i.list_deletions_handler                 0x0001b478   Section        0  app_timer.o(i.list_deletions_handler)
    list_deletions_handler                   0x0001b479   Thumb Code   136  app_timer.o(i.list_deletions_handler)
    i.list_insertions_handler                0x0001b50c   Section        0  app_timer.o(i.list_insertions_handler)
    list_insertions_handler                  0x0001b50d   Thumb Code   248  app_timer.o(i.list_insertions_handler)
    i.lock_set_init                          0x0001b61c   Section        0  ofo_lock.o(i.lock_set_init)
    i.lock_timer_handler                     0x0001b6a8   Section        0  ofo_lock.o(i.lock_timer_handler)
    lock_timer_handler                       0x0001b6a9   Thumb Code   178  ofo_lock.o(i.lock_timer_handler)
    i.main                                   0x0001b76c   Section        0  main.o(i.main)
    i.main_state_err_busy_process            0x0001b7d0   Section        0  pstorage.o(i.main_state_err_busy_process)
    main_state_err_busy_process              0x0001b7d1   Thumb Code    24  pstorage.o(i.main_state_err_busy_process)
    i.manuf_specific_data_encode             0x0001b7f0   Section        0  ble_advdata.o(i.manuf_specific_data_encode)
    manuf_specific_data_encode               0x0001b7f1   Thumb Code   120  ble_advdata.o(i.manuf_specific_data_encode)
    i.name_encode                            0x0001b868   Section        0  ble_advdata.o(i.name_encode)
    name_encode                              0x0001b869   Thumb Code   194  ble_advdata.o(i.name_encode)
    i.nrf_adc_configure                      0x0001b92c   Section        0  nrf_adc.o(i.nrf_adc_configure)
    i.nrf_adc_input_select                   0x0001b97c   Section        0  nrf_adc.o(i.nrf_adc_input_select)
    nrf_adc_input_select                     0x0001b97d   Thumb Code    36  nrf_adc.o(i.nrf_adc_input_select)
    i.nrf_delay_ms                           0x0001b9a4   Section        0  nrf_delay.o(i.nrf_delay_ms)
    i.nrf_drv_common_irq_enable              0x0001b9c0   Section        0  nrf_drv_common.o(i.nrf_drv_common_irq_enable)
    i.nrf_drv_gpiote_in_event_disable        0x0001b9f8   Section        0  nrf_drv_gpiote.o(i.nrf_drv_gpiote_in_event_disable)
    i.nrf_drv_gpiote_in_event_enable         0x0001ba58   Section        0  nrf_drv_gpiote.o(i.nrf_drv_gpiote_in_event_enable)
    i.nrf_drv_gpiote_in_init                 0x0001bb20   Section        0  nrf_drv_gpiote.o(i.nrf_drv_gpiote_in_init)
    i.nrf_drv_gpiote_init                    0x0001bc14   Section        0  nrf_drv_gpiote.o(i.nrf_drv_gpiote_init)
    i.nrf_drv_uart_init                      0x0001bc64   Section        0  nrf_drv_uart.o(i.nrf_drv_uart_init)
    i.nrf_drv_uart_rx                        0x0001bce4   Section        0  nrf_drv_uart.o(i.nrf_drv_uart_rx)
    i.nrf_drv_uart_rx_enable                 0x0001bdc4   Section        0  nrf_drv_uart.o(i.nrf_drv_uart_rx_enable)
    i.nrf_drv_uart_tx                        0x0001bde0   Section        0  nrf_drv_uart.o(i.nrf_drv_uart_tx)
    i.nrf_drv_uart_uninit                    0x0001be94   Section        0  nrf_drv_uart.o(i.nrf_drv_uart_uninit)
    i.nrf_drv_wdt_channel_alloc              0x0001bef0   Section        0  nrf_drv_wdt.o(i.nrf_drv_wdt_channel_alloc)
    i.nrf_drv_wdt_init                       0x0001bf98   Section        0  nrf_drv_wdt.o(i.nrf_drv_wdt_init)
    i.nrf_gpio_cfg                           0x0001bff4   Section        0  main.o(i.nrf_gpio_cfg)
    nrf_gpio_cfg                             0x0001bff5   Thumb Code    38  main.o(i.nrf_gpio_cfg)
    i.nrf_gpio_cfg                           0x0001c01a   Section        0  nrf_drv_gpiote.o(i.nrf_gpio_cfg)
    nrf_gpio_cfg                             0x0001c01b   Thumb Code    38  nrf_drv_gpiote.o(i.nrf_gpio_cfg)
    i.nrf_gpio_cfg                           0x0001c040   Section        0  nrf_drv_uart.o(i.nrf_gpio_cfg)
    nrf_gpio_cfg                             0x0001c041   Thumb Code    38  nrf_drv_uart.o(i.nrf_gpio_cfg)
    i.nrf_gpio_cfg_default                   0x0001c066   Section        0  nrf_drv_uart.o(i.nrf_gpio_cfg_default)
    nrf_gpio_cfg_default                     0x0001c067   Thumb Code    24  nrf_drv_uart.o(i.nrf_gpio_cfg_default)
    i.nrf_gpio_cfg_input                     0x0001c07e   Section        0  main.o(i.nrf_gpio_cfg_input)
    nrf_gpio_cfg_input                       0x0001c07f   Thumb Code    26  main.o(i.nrf_gpio_cfg_input)
    i.nrf_gpio_cfg_input                     0x0001c098   Section        0  nrf_drv_uart.o(i.nrf_gpio_cfg_input)
    nrf_gpio_cfg_input                       0x0001c099   Thumb Code    26  nrf_drv_uart.o(i.nrf_gpio_cfg_input)
    i.nrf_gpio_cfg_output                    0x0001c0b2   Section        0  main.o(i.nrf_gpio_cfg_output)
    nrf_gpio_cfg_output                      0x0001c0b3   Thumb Code    24  main.o(i.nrf_gpio_cfg_output)
    i.nrf_gpio_cfg_output                    0x0001c0ca   Section        0  nrf_drv_uart.o(i.nrf_gpio_cfg_output)
    nrf_gpio_cfg_output                      0x0001c0cb   Thumb Code    24  nrf_drv_uart.o(i.nrf_gpio_cfg_output)
    i.nrf_gpio_cfg_sense_set                 0x0001c0e2   Section        0  nrf_drv_gpiote.o(i.nrf_gpio_cfg_sense_set)
    nrf_gpio_cfg_sense_set                   0x0001c0e3   Thumb Code    70  nrf_drv_gpiote.o(i.nrf_gpio_cfg_sense_set)
    i.nrf_gpio_pin_clear                     0x0001c128   Section        0  ofo_buzz.o(i.nrf_gpio_pin_clear)
    nrf_gpio_pin_clear                       0x0001c129   Thumb Code    10  ofo_buzz.o(i.nrf_gpio_pin_clear)
    i.nrf_gpio_pin_clear                     0x0001c138   Section        0  ofo_lock.o(i.nrf_gpio_pin_clear)
    nrf_gpio_pin_clear                       0x0001c139   Thumb Code    10  ofo_lock.o(i.nrf_gpio_pin_clear)
    i.nrf_gpio_pin_read                      0x0001c148   Section        0  ofo_lock.o(i.nrf_gpio_pin_read)
    nrf_gpio_pin_read                        0x0001c149   Thumb Code    14  ofo_lock.o(i.nrf_gpio_pin_read)
    i.nrf_gpio_pin_set                       0x0001c15c   Section        0  ofo_buzz.o(i.nrf_gpio_pin_set)
    nrf_gpio_pin_set                         0x0001c15d   Thumb Code    10  ofo_buzz.o(i.nrf_gpio_pin_set)
    i.nrf_gpio_pin_set                       0x0001c16c   Section        0  nrf_drv_spi.o(i.nrf_gpio_pin_set)
    nrf_gpio_pin_set                         0x0001c16d   Thumb Code    10  nrf_drv_spi.o(i.nrf_gpio_pin_set)
    i.nrf_gpio_pin_set                       0x0001c17c   Section        0  nrf_drv_uart.o(i.nrf_gpio_pin_set)
    nrf_gpio_pin_set                         0x0001c17d   Thumb Code    10  nrf_drv_uart.o(i.nrf_gpio_pin_set)
    i.nrf_gpiote_event_addr_get              0x0001c18c   Section        0  nrf_drv_gpiote.o(i.nrf_gpiote_event_addr_get)
    nrf_gpiote_event_addr_get                0x0001c18d   Thumb Code     8  nrf_drv_gpiote.o(i.nrf_gpiote_event_addr_get)
    i.nrf_gpiote_event_clear                 0x0001c198   Section        0  nrf_drv_gpiote.o(i.nrf_gpiote_event_clear)
    nrf_gpiote_event_clear                   0x0001c199   Thumb Code    16  nrf_drv_gpiote.o(i.nrf_gpiote_event_clear)
    i.nrf_gpiote_event_is_set                0x0001c1a8   Section        0  nrf_drv_gpiote.o(i.nrf_gpiote_event_is_set)
    nrf_gpiote_event_is_set                  0x0001c1a9   Thumb Code    22  nrf_drv_gpiote.o(i.nrf_gpiote_event_is_set)
    i.nrf_gpiote_int_enable                  0x0001c1c0   Section        0  nrf_drv_gpiote.o(i.nrf_gpiote_int_enable)
    nrf_gpiote_int_enable                    0x0001c1c1   Thumb Code     6  nrf_drv_gpiote.o(i.nrf_gpiote_int_enable)
    i.nrf_spi_event_clear                    0x0001c1cc   Section        0  nrf_drv_spi.o(i.nrf_spi_event_clear)
    nrf_spi_event_clear                      0x0001c1cd   Thumb Code     6  nrf_drv_spi.o(i.nrf_spi_event_clear)
    i.nrf_spi_txd_set                        0x0001c1d2   Section        0  nrf_drv_spi.o(i.nrf_spi_txd_set)
    nrf_spi_txd_set                          0x0001c1d3   Thumb Code    10  nrf_drv_spi.o(i.nrf_spi_txd_set)
    i.nrf_uart_errorsrc_get_and_clear        0x0001c1dc   Section        0  nrf_drv_uart.o(i.nrf_uart_errorsrc_get_and_clear)
    nrf_uart_errorsrc_get_and_clear          0x0001c1dd   Thumb Code    20  nrf_drv_uart.o(i.nrf_uart_errorsrc_get_and_clear)
    i.nrf_uart_event_check                   0x0001c1f0   Section        0  nrf_drv_uart.o(i.nrf_uart_event_check)
    nrf_uart_event_check                     0x0001c1f1   Thumb Code    16  nrf_drv_uart.o(i.nrf_uart_event_check)
    i.nrf_uart_event_clear                   0x0001c200   Section        0  nrf_drv_uart.o(i.nrf_uart_event_clear)
    nrf_uart_event_clear                     0x0001c201   Thumb Code     6  nrf_drv_uart.o(i.nrf_uart_event_clear)
    i.nrf_uart_hwfc_pins_set                 0x0001c206   Section        0  nrf_drv_uart.o(i.nrf_uart_hwfc_pins_set)
    nrf_uart_hwfc_pins_set                   0x0001c207   Thumb Code    18  nrf_drv_uart.o(i.nrf_uart_hwfc_pins_set)
    i.nrf_uart_int_disable                   0x0001c218   Section        0  nrf_drv_uart.o(i.nrf_uart_int_disable)
    nrf_uart_int_disable                     0x0001c219   Thumb Code    10  nrf_drv_uart.o(i.nrf_uart_int_disable)
    i.nrf_uart_int_enable                    0x0001c222   Section        0  nrf_drv_uart.o(i.nrf_uart_int_enable)
    nrf_uart_int_enable                      0x0001c223   Thumb Code    10  nrf_drv_uart.o(i.nrf_uart_int_enable)
    i.nrf_uart_int_enable_check              0x0001c22c   Section        0  nrf_drv_uart.o(i.nrf_uart_int_enable_check)
    nrf_uart_int_enable_check                0x0001c22d   Thumb Code    24  nrf_drv_uart.o(i.nrf_uart_int_enable_check)
    i.nrf_uart_task_trigger                  0x0001c244   Section        0  nrf_drv_uart.o(i.nrf_uart_task_trigger)
    nrf_uart_task_trigger                    0x0001c245   Thumb Code     6  nrf_drv_uart.o(i.nrf_uart_task_trigger)
    i.nrf_uart_txrx_pins_set                 0x0001c24a   Section        0  nrf_drv_uart.o(i.nrf_uart_txrx_pins_set)
    nrf_uart_txrx_pins_set                   0x0001c24b   Thumb Code    18  nrf_drv_uart.o(i.nrf_uart_txrx_pins_set)
    i.nus_data_handler                       0x0001c25c   Section        0  main.o(i.nus_data_handler)
    nus_data_handler                         0x0001c25d   Thumb Code    34  main.o(i.nus_data_handler)
    i.on_adv_evt                             0x0001c288   Section        0  main.o(i.on_adv_evt)
    on_adv_evt                               0x0001c289   Thumb Code    26  main.o(i.on_adv_evt)
    i.on_ble_evt                             0x0001c2a4   Section        0  main.o(i.on_ble_evt)
    on_ble_evt                               0x0001c2a5   Thumb Code   128  main.o(i.on_ble_evt)
    i.on_conn_params_evt                     0x0001c328   Section        0  main.o(i.on_conn_params_evt)
    on_conn_params_evt                       0x0001c329   Thumb Code    46  main.o(i.on_conn_params_evt)
    i.on_conn_params_update                  0x0001c35c   Section        0  ble_conn_params.o(i.on_conn_params_update)
    on_conn_params_update                    0x0001c35d   Thumb Code    20  ble_conn_params.o(i.on_conn_params_update)
    i.on_connect                             0x0001c374   Section        0  ble_conn_params.o(i.on_connect)
    on_connect                               0x0001c375   Thumb Code    42  ble_conn_params.o(i.on_connect)
    i.on_connect                             0x0001c3b0   Section        0  ble_nus.o(i.on_connect)
    on_connect                               0x0001c3b1   Thumb Code     6  ble_nus.o(i.on_connect)
    i.on_disconnect                          0x0001c3b8   Section        0  ble_conn_params.o(i.on_disconnect)
    on_disconnect                            0x0001c3b9   Thumb Code    50  ble_conn_params.o(i.on_disconnect)
    i.on_disconnect                          0x0001c3fc   Section        0  ble_nus.o(i.on_disconnect)
    on_disconnect                            0x0001c3fd   Thumb Code     8  ble_nus.o(i.on_disconnect)
    i.on_write                               0x0001c404   Section        0  ble_conn_params.o(i.on_write)
    on_write                                 0x0001c405   Thumb Code    84  ble_conn_params.o(i.on_write)
    i.on_write                               0x0001c460   Section        0  ble_nus.o(i.on_write)
    on_write                                 0x0001c461   Thumb Code    84  ble_nus.o(i.on_write)
    i.peer_address_exists                    0x0001c4b4   Section        0  ble_advertising.o(i.peer_address_exists)
    peer_address_exists                      0x0001c4b5   Thumb Code    26  ble_advertising.o(i.peer_address_exists)
    i.pin_in_use_by_gpiote                   0x0001c4d0   Section        0  nrf_drv_gpiote.o(i.pin_in_use_by_gpiote)
    pin_in_use_by_gpiote                     0x0001c4d1   Thumb Code    22  nrf_drv_gpiote.o(i.pin_in_use_by_gpiote)
    i.pin_in_use_by_port                     0x0001c4ec   Section        0  nrf_drv_gpiote.o(i.pin_in_use_by_port)
    pin_in_use_by_port                       0x0001c4ed   Thumb Code    18  nrf_drv_gpiote.o(i.pin_in_use_by_port)
    i.pin_in_use_by_te                       0x0001c504   Section        0  nrf_drv_gpiote.o(i.pin_in_use_by_te)
    pin_in_use_by_te                         0x0001c505   Thumb Code    26  nrf_drv_gpiote.o(i.pin_in_use_by_te)
    i.pin_in_use_clear                       0x0001c524   Section        0  nrf_drv_gpiote.o(i.pin_in_use_clear)
    pin_in_use_clear                         0x0001c525   Thumb Code    10  nrf_drv_gpiote.o(i.pin_in_use_clear)
    i.pins_to_default                        0x0001c534   Section        0  nrf_drv_uart.o(i.pins_to_default)
    pins_to_default                          0x0001c535   Thumb Code   116  nrf_drv_uart.o(i.pins_to_default)
    i.power_manage                           0x0001c5ac   Section        0  main.o(i.power_manage)
    power_manage                             0x0001c5ad   Thumb Code    32  main.o(i.power_manage)
    i.pstorage_access_status_get             0x0001c5cc   Section        0  pstorage.o(i.pstorage_access_status_get)
    i.pstorage_flash_page_end                0x0001c5fc   Section        0  pstorage.o(i.pstorage_flash_page_end)
    pstorage_flash_page_end                  0x0001c5fd   Thumb Code    36  pstorage.o(i.pstorage_flash_page_end)
    i.pstorage_flash_page_size               0x0001c624   Section        0  pstorage.o(i.pstorage_flash_page_size)
    pstorage_flash_page_size                 0x0001c625   Thumb Code    10  pstorage.o(i.pstorage_flash_page_size)
    i.pstorage_init                          0x0001c630   Section        0  pstorage.o(i.pstorage_init)
    i.pstorage_register                      0x0001c6b8   Section        0  pstorage.o(i.pstorage_register)
    i.pstorage_sys_event_handler             0x0001c7d8   Section        0  pstorage.o(i.pstorage_sys_event_handler)
    i.rtc1_compare0_set                      0x0001c824   Section        0  app_timer.o(i.rtc1_compare0_set)
    rtc1_compare0_set                        0x0001c825   Thumb Code     6  app_timer.o(i.rtc1_compare0_set)
    i.rtc1_counter_get                       0x0001c830   Section        0  app_timer.o(i.rtc1_counter_get)
    rtc1_counter_get                         0x0001c831   Thumb Code     6  app_timer.o(i.rtc1_counter_get)
    i.rtc1_init                              0x0001c83c   Section        0  app_timer.o(i.rtc1_init)
    rtc1_init                                0x0001c83d   Thumb Code    18  app_timer.o(i.rtc1_init)
    i.rtc1_start                             0x0001c854   Section        0  app_timer.o(i.rtc1_start)
    rtc1_start                               0x0001c855   Thumb Code    48  app_timer.o(i.rtc1_start)
    i.rtc1_stop                              0x0001c890   Section        0  app_timer.o(i.rtc1_stop)
    rtc1_stop                                0x0001c891   Thumb Code    66  app_timer.o(i.rtc1_stop)
    i.rx_byte                                0x0001c8e8   Section        0  nrf_drv_uart.o(i.rx_byte)
    rx_byte                                  0x0001c8e9   Thumb Code    48  nrf_drv_uart.o(i.rx_byte)
    i.rx_char_add                            0x0001c920   Section        0  ble_nus.o(i.rx_char_add)
    rx_char_add                              0x0001c921   Thumb Code   292  ble_nus.o(i.rx_char_add)
    i.rx_done_event                          0x0001ca44   Section        0  nrf_drv_uart.o(i.rx_done_event)
    rx_done_event                            0x0001ca45   Thumb Code    38  nrf_drv_uart.o(i.rx_done_event)
    i.rx_enable                              0x0001ca70   Section        0  nrf_drv_uart.o(i.rx_enable)
    rx_enable                                0x0001ca71   Thumb Code    32  nrf_drv_uart.o(i.rx_enable)
    i.sec_mgr_oob_flags_encode               0x0001ca94   Section        0  ble_advdata.o(i.sec_mgr_oob_flags_encode)
    sec_mgr_oob_flags_encode                 0x0001ca95   Thumb Code    54  ble_advdata.o(i.sec_mgr_oob_flags_encode)
    i.service_data_encode                    0x0001caca   Section        0  ble_advdata.o(i.service_data_encode)
    service_data_encode                      0x0001cacb   Thumb Code   150  ble_advdata.o(i.service_data_encode)
    i.services_init                          0x0001cb60   Section        0  main.o(i.services_init)
    services_init                            0x0001cb61   Thumb Code    46  main.o(i.services_init)
    i.single_led_control                     0x0001cb98   Section        0  ofo_led.o(i.single_led_control)
    single_led_control                       0x0001cb99   Thumb Code    40  ofo_led.o(i.single_led_control)
    i.sleep_mode_enter                       0x0001cbc8   Section        0  main.o(i.sleep_mode_enter)
    sleep_mode_enter                         0x0001cbc9   Thumb Code    32  main.o(i.sleep_mode_enter)
    i.sm_state_change                        0x0001cbe8   Section        0  pstorage.o(i.sm_state_change)
    sm_state_change                          0x0001cbe9   Thumb Code    14  pstorage.o(i.sm_state_change)
    i.softdevice_assertion_handler           0x0001cbfc   Section        0  softdevice_handler.o(i.softdevice_assertion_handler)
    i.softdevice_ble_evt_handler_set         0x0001cc10   Section        0  softdevice_handler.o(i.softdevice_ble_evt_handler_set)
    i.softdevice_handler_init                0x0001cc28   Section        0  softdevice_handler.o(i.softdevice_handler_init)
    i.softdevice_sys_evt_handler_set         0x0001cc90   Section        0  softdevice_handler.o(i.softdevice_sys_evt_handler_set)
    i.srdata_check                           0x0001cca8   Section        0  ble_advdata.o(i.srdata_check)
    srdata_check                             0x0001cca9   Thumb Code    16  ble_advdata.o(i.srdata_check)
    i.state_data_erase_entry_run             0x0001ccb8   Section        0  pstorage.o(i.state_data_erase_entry_run)
    state_data_erase_entry_run               0x0001ccb9   Thumb Code    12  pstorage.o(i.state_data_erase_entry_run)
    i.state_data_erase_swap_entry_run        0x0001ccc8   Section        0  pstorage.o(i.state_data_erase_swap_entry_run)
    state_data_erase_swap_entry_run          0x0001ccc9   Thumb Code   136  pstorage.o(i.state_data_erase_swap_entry_run)
    i.state_entry_action_run                 0x0001cd60   Section        0  pstorage.o(i.state_entry_action_run)
    state_entry_action_run                   0x0001cd61   Thumb Code    54  pstorage.o(i.state_entry_action_run)
    i.state_erase_data_page_entry_run        0x0001cd9c   Section        0  pstorage.o(i.state_erase_data_page_entry_run)
    state_erase_data_page_entry_run          0x0001cd9d   Thumb Code    12  pstorage.o(i.state_erase_data_page_entry_run)
    i.state_idle_entry_run                   0x0001cdac   Section        0  pstorage.o(i.state_idle_entry_run)
    state_idle_entry_run                     0x0001cdad   Thumb Code    18  pstorage.o(i.state_idle_entry_run)
    i.state_restore_head_entry_run           0x0001cdc8   Section        0  pstorage.o(i.state_restore_head_entry_run)
    state_restore_head_entry_run             0x0001cdc9   Thumb Code    44  pstorage.o(i.state_restore_head_entry_run)
    i.state_restore_tail_entry_run           0x0001cdfc   Section        0  pstorage.o(i.state_restore_tail_entry_run)
    state_restore_tail_entry_run             0x0001cdfd   Thumb Code    76  pstorage.o(i.state_restore_tail_entry_run)
    i.state_store_entry_run                  0x0001ce50   Section        0  pstorage.o(i.state_store_entry_run)
    state_store_entry_run                    0x0001ce51   Thumb Code     8  pstorage.o(i.state_store_entry_run)
    i.state_swap_erase_entry_run             0x0001ce58   Section        0  pstorage.o(i.state_swap_erase_entry_run)
    state_swap_erase_entry_run               0x0001ce59   Thumb Code    38  pstorage.o(i.state_swap_erase_entry_run)
    i.state_write_data_swap_entry_run        0x0001ce80   Section        0  pstorage.o(i.state_write_data_swap_entry_run)
    state_write_data_swap_entry_run          0x0001ce81   Thumb Code    46  pstorage.o(i.state_write_data_swap_entry_run)
    i.store_cmd_flash_write_execute          0x0001ceb4   Section        0  pstorage.o(i.store_cmd_flash_write_execute)
    store_cmd_flash_write_execute            0x0001ceb5   Thumb Code    92  pstorage.o(i.store_cmd_flash_write_execute)
    i.store_operation_execute                0x0001cf18   Section        0  pstorage.o(i.store_operation_execute)
    store_operation_execute                  0x0001cf19   Thumb Code    10  pstorage.o(i.store_operation_execute)
    i.store_sub_state_sm_run                 0x0001cf24   Section        0  pstorage.o(i.store_sub_state_sm_run)
    store_sub_state_sm_run                   0x0001cf25   Thumb Code    62  pstorage.o(i.store_sub_state_sm_run)
    i.swap_erase_state_run                   0x0001cf70   Section        0  pstorage.o(i.swap_erase_state_run)
    swap_erase_state_run                     0x0001cf71   Thumb Code    28  pstorage.o(i.swap_erase_state_run)
    i.swap_sub_sm_exit_action_run            0x0001cf90   Section        0  pstorage.o(i.swap_sub_sm_exit_action_run)
    swap_sub_sm_exit_action_run              0x0001cf91   Thumb Code     8  pstorage.o(i.swap_sub_sm_exit_action_run)
    i.swap_sub_state_entry_action_run        0x0001cf98   Section        0  pstorage.o(i.swap_sub_state_entry_action_run)
    swap_sub_state_entry_action_run          0x0001cf99   Thumb Code    16  pstorage.o(i.swap_sub_state_entry_action_run)
    i.swap_sub_state_err_busy_process        0x0001cfb0   Section        0  pstorage.o(i.swap_sub_state_err_busy_process)
    swap_sub_state_err_busy_process          0x0001cfb1   Thumb Code    24  pstorage.o(i.swap_sub_state_err_busy_process)
    i.swap_sub_state_sm_run                  0x0001cfd0   Section        0  pstorage.o(i.swap_sub_state_sm_run)
    swap_sub_state_sm_run                    0x0001cfd1   Thumb Code    16  pstorage.o(i.swap_sub_state_sm_run)
    i.swap_sub_state_state_change            0x0001cfe8   Section        0  pstorage.o(i.swap_sub_state_state_change)
    swap_sub_state_state_change              0x0001cfe9   Thumb Code    14  pstorage.o(i.swap_sub_state_state_change)
    i.switch_event_handler                   0x0001cffc   Section        0  ofo_lock.o(i.switch_event_handler)
    i.sys_evt_dispatch                       0x0001d084   Section        0  main.o(i.sys_evt_dispatch)
    sys_evt_dispatch                         0x0001d085   Thumb Code    12  main.o(i.sys_evt_dispatch)
    i.tail_restore_state_run                 0x0001d090   Section        0  pstorage.o(i.tail_restore_state_run)
    tail_restore_state_run                   0x0001d091   Thumb Code    26  pstorage.o(i.tail_restore_state_run)
    i.tail_word_size_calculate               0x0001d0b0   Section        0  pstorage.o(i.tail_word_size_calculate)
    tail_word_size_calculate                 0x0001d0b1   Thumb Code    84  pstorage.o(i.tail_word_size_calculate)
    i.ticks_diff_get                         0x0001d108   Section        0  app_timer.o(i.ticks_diff_get)
    ticks_diff_get                           0x0001d109   Thumb Code    10  app_timer.o(i.ticks_diff_get)
    i.timeout_handler_exec                   0x0001d114   Section        0  app_timer.o(i.timeout_handler_exec)
    timeout_handler_exec                     0x0001d115   Thumb Code    58  app_timer.o(i.timeout_handler_exec)
    i.timer_init                             0x0001d154   Section        0  main.o(i.timer_init)
    i.timer_list_handler                     0x0001d188   Section        0  app_timer.o(i.timer_list_handler)
    timer_list_handler                       0x0001d189   Thumb Code    74  app_timer.o(i.timer_list_handler)
    i.timer_list_handler_sched               0x0001d1e0   Section        0  app_timer.o(i.timer_list_handler_sched)
    timer_list_handler_sched                 0x0001d1e1   Thumb Code    10  app_timer.o(i.timer_list_handler_sched)
    i.timer_list_insert                      0x0001d1ec   Section        0  app_timer.o(i.timer_list_insert)
    timer_list_insert                        0x0001d1ed   Thumb Code   104  app_timer.o(i.timer_list_insert)
    i.timer_list_remove                      0x0001d258   Section        0  app_timer.o(i.timer_list_remove)
    timer_list_remove                        0x0001d259   Thumb Code    96  app_timer.o(i.timer_list_remove)
    i.timer_start_op_schedule                0x0001d2c8   Section        0  app_timer.o(i.timer_start_op_schedule)
    timer_start_op_schedule                  0x0001d2c9   Thumb Code    82  app_timer.o(i.timer_start_op_schedule)
    i.timer_stop_op_schedule                 0x0001d320   Section        0  app_timer.o(i.timer_stop_op_schedule)
    timer_stop_op_schedule                   0x0001d321   Thumb Code    60  app_timer.o(i.timer_stop_op_schedule)
    i.timer_timeouts_check                   0x0001d360   Section        0  app_timer.o(i.timer_timeouts_check)
    timer_timeouts_check                     0x0001d361   Thumb Code   128  app_timer.o(i.timer_timeouts_check)
    i.timer_timeouts_check_sched             0x0001d3f4   Section        0  app_timer.o(i.timer_timeouts_check_sched)
    timer_timeouts_check_sched               0x0001d3f5   Thumb Code    10  app_timer.o(i.timer_timeouts_check_sched)
    i.tk_value_encode                        0x0001d3fe   Section        0  ble_advdata.o(i.tk_value_encode)
    tk_value_encode                          0x0001d3ff   Thumb Code    70  ble_advdata.o(i.tk_value_encode)
    i.transfer_byte                          0x0001d444   Section        0  nrf_drv_spi.o(i.transfer_byte)
    transfer_byte                            0x0001d445   Thumb Code   110  nrf_drv_spi.o(i.transfer_byte)
    i.tx_byte                                0x0001d4b4   Section        0  nrf_drv_uart.o(i.tx_byte)
    tx_byte                                  0x0001d4b5   Thumb Code    48  nrf_drv_uart.o(i.tx_byte)
    i.tx_char_add                            0x0001d4ec   Section        0  ble_nus.o(i.tx_char_add)
    tx_char_add                              0x0001d4ed   Thumb Code   222  ble_nus.o(i.tx_char_add)
    i.tx_done_event                          0x0001d5cc   Section        0  nrf_drv_uart.o(i.tx_done_event)
    tx_done_event                            0x0001d5cd   Thumb Code    38  nrf_drv_uart.o(i.tx_done_event)
    i.tx_power_level_encode                  0x0001d5f8   Section        0  ble_advdata.o(i.tx_power_level_encode)
    tx_power_level_encode                    0x0001d5f9   Thumb Code    54  ble_advdata.o(i.tx_power_level_encode)
    i.uart_event_handle                      0x0001d630   Section        0  ofo_uart.o(i.uart_event_handle)
    i.uart_event_handler                     0x0001d6e0   Section        0  app_uart_fifo.o(i.uart_event_handler)
    uart_event_handler                       0x0001d6e1   Thumb Code   170  app_uart_fifo.o(i.uart_event_handler)
    i.uart_init                              0x0001d7a0   Section        0  ofo_uart.o(i.uart_init)
    i.uint16_encode                          0x0001d818   Section        0  ble_advdata.o(i.uint16_encode)
    uint16_encode                            0x0001d819   Thumb Code    18  ble_advdata.o(i.uint16_encode)
    i.update_operation_execute               0x0001d82a   Section        0  pstorage.o(i.update_operation_execute)
    update_operation_execute                 0x0001d82b   Thumb Code     8  pstorage.o(i.update_operation_execute)
    i.update_timeout_handler                 0x0001d834   Section        0  ble_conn_params.o(i.update_timeout_handler)
    update_timeout_handler                   0x0001d835   Thumb Code   136  ble_conn_params.o(i.update_timeout_handler)
    i.user_id_get                            0x0001d8d0   Section        0  app_timer.o(i.user_id_get)
    user_id_get                              0x0001d8d1   Thumb Code    34  app_timer.o(i.user_id_get)
    i.user_op_alloc                          0x0001d8f2   Section        0  app_timer.o(i.user_op_alloc)
    user_op_alloc                            0x0001d8f3   Thumb Code    46  app_timer.o(i.user_op_alloc)
    i.user_op_enque                          0x0001d920   Section        0  app_timer.o(i.user_op_enque)
    user_op_enque                            0x0001d921   Thumb Code     4  app_timer.o(i.user_op_enque)
    i.uuid_list_encode                       0x0001d924   Section        0  ble_advdata.o(i.uuid_list_encode)
    uuid_list_encode                         0x0001d925   Thumb Code    68  ble_advdata.o(i.uuid_list_encode)
    i.uuid_list_sized_encode                 0x0001d968   Section        0  ble_advdata.o(i.uuid_list_sized_encode)
    uuid_list_sized_encode                   0x0001d969   Thumb Code   216  ble_advdata.o(i.uuid_list_sized_encode)
    i.wdt_event_handler                      0x0001da40   Section        0  ofo_wdt.o(i.wdt_event_handler)
    i.wdt_init                               0x0001da44   Section        0  ofo_wdt.o(i.wdt_init)
    i.whitelist_has_entries                  0x0001daa4   Section        0  ble_advertising.o(i.whitelist_has_entries)
    whitelist_has_entries                    0x0001daa5   Thumb Code    22  ble_advertising.o(i.whitelist_has_entries)
    x$fpl$usenofp                            0x0001daba   Section        0  usenofp.o(x$fpl$usenofp)
    .constdata                               0x0001dabc   Section       15  ofo_led.o(.constdata)
    LED_timer_id                             0x0001dabc   Data           4  ofo_led.o(.constdata)
    .constdata                               0x0001dacc   Section        8  ofo_adc.o(.constdata)
    .constdata                               0x0001dad4   Section       12  ofo_uart.o(.constdata)
    .constdata                               0x0001dae0   Section       16  ofo_buzz.o(.constdata)
    Buzz_timer_id                            0x0001daec   Data           4  ofo_buzz.o(.constdata)
    .constdata                               0x0001daf0   Section       12  ofo_lock.o(.constdata)
    Lock_timer_id                            0x0001daf0   Data           4  ofo_lock.o(.constdata)
    .constdata                               0x0001dafc   Section       24  ofo_key_unlock.o(.constdata)
    Key_unlock_timer_id                      0x0001dafc   Data           4  ofo_key_unlock.o(.constdata)
    .constdata                               0x0001db14   Section        4  ble_conn_params.o(.constdata)
    m_conn_params_timer_id                   0x0001db14   Data           4  ble_conn_params.o(.constdata)
    .constdata                               0x0001db18   Section       16  ble_nus.o(.constdata)
    .constdata                               0x0001db28   Section       32  nrf_drv_uart.o(.constdata)
    m_default_config                         0x0001db28   Data          32  nrf_drv_uart.o(.constdata)
    .constdata                               0x0001db48   Section       12  nrf_drv_wdt.o(.constdata)
    m_default_config                         0x0001db48   Data          12  nrf_drv_wdt.o(.constdata)
    .constdata                               0x0001db54   Section       40  pstorage.o(.constdata)
    swap_sub_state_sm_lut                    0x0001db54   Data          20  pstorage.o(.constdata)
    swap_sub_state_sm_lut                    0x0001db68   Data          20  pstorage.o(.constdata)
    .constdata                               0x0001db7c   Section       32  app_uart_fifo.o(.constdata)
    .constdata                               0x0001db9c   Section       40  _printf_hex_int.o(.constdata)
    uc_hextab                                0x0001db9c   Data          20  _printf_hex_int.o(.constdata)
    lc_hextab                                0x0001dbb0   Data          20  _printf_hex_int.o(.constdata)
    .data                                    0x20002000   Section       12  main.o(.data)
    m_adv_uuids                              0x20002002   Data           4  main.o(.data)
    .data                                    0x2000200c   Section        8  ofo_led.o(.data)
    current_flash_loop                       0x20002010   Data           4  ofo_led.o(.data)
    .data                                    0x20002014   Section        4  ofo_adc.o(.data)
    .data                                    0x20002018   Section        1  ofo_wdt.o(.data)
    .data                                    0x20002019   Section        2  ofo_uart.o(.data)
    index                                    0x2000201a   Data           1  ofo_uart.o(.data)
    .data                                    0x2000201c   Section       20  ofo_flash.o(.data)
    .data                                    0x20002030   Section        4  ofo_buzz.o(.data)
    .data                                    0x20002034   Section        8  ofo_lock.o(.data)
    LockTimeSt                               0x20002034   Data           1  ofo_lock.o(.data)
    LockTimeTimes                            0x20002036   Data           2  ofo_lock.o(.data)
    .data                                    0x2000203c   Section       28  ofo_key_unlock.o(.data)
    KeyTimeOutErr                            0x2000203c   Data           4  ofo_key_unlock.o(.data)
    KeyTimeOut                               0x20002040   Data           4  ofo_key_unlock.o(.data)
    KeyReadBuf                               0x20002044   Data           4  ofo_key_unlock.o(.data)
    KeyIndex                                 0x20002048   Data           1  ofo_key_unlock.o(.data)
    password_err                             0x20002049   Data           1  ofo_key_unlock.o(.data)
    .data                                    0x20002058   Section        3  ofo_factory_test.o(.data)
    .data                                    0x2000205c   Section        4  system_nrf51.o(.data)
    __tagsym$$used                           0x2000205c   Number         0  system_nrf51.o(.data)
    .data                                    0x20002060   Section       32  ble_advertising.o(.data)
    m_advertising_start_pending              0x20002060   Data           1  ble_advertising.o(.data)
    m_peer_address                           0x20002061   Data           7  ble_advertising.o(.data)
    m_adv_evt                                0x20002068   Data           1  ble_advertising.o(.data)
    m_evt_handler                            0x2000206c   Data           4  ble_advertising.o(.data)
    m_error_handler                          0x20002070   Data           4  ble_advertising.o(.data)
    m_adv_mode_current                       0x20002074   Data           1  ble_advertising.o(.data)
    m_whitelist_temporarily_disabled         0x20002075   Data           1  ble_advertising.o(.data)
    m_whitelist_reply_expected               0x20002076   Data           1  ble_advertising.o(.data)
    m_peer_addr_reply_expected               0x20002077   Data           1  ble_advertising.o(.data)
    m_slave_conn_int                         0x20002078   Data           4  ble_advertising.o(.data)
    m_tx_power_level                         0x2000207c   Data           1  ble_advertising.o(.data)
    current_slave_link_conn_handle           0x2000207e   Data           2  ble_advertising.o(.data)
    .data                                    0x20002080   Section       21  ble_conn_params.o(.data)
    m_preferred_conn_params                  0x20002080   Data           8  ble_conn_params.o(.data)
    m_update_count                           0x20002088   Data           1  ble_conn_params.o(.data)
    m_conn_handle                            0x2000208a   Data           2  ble_conn_params.o(.data)
    m_current_conn_params                    0x2000208c   Data           8  ble_conn_params.o(.data)
    m_change_param                           0x20002094   Data           1  ble_conn_params.o(.data)
    .data                                    0x20002098   Section       12  nrf_drv_wdt.o(.data)
    m_wdt_event_handler                      0x20002098   Data           4  nrf_drv_wdt.o(.data)
    m_state                                  0x2000209c   Data           1  nrf_drv_wdt.o(.data)
    m_alloc_index                            0x200020a0   Data           4  nrf_drv_wdt.o(.data)
    .data                                    0x200020a4   Section       40  pstorage.o(.data)
    m_next_app_instance                      0x200020a4   Data           2  pstorage.o(.data)
    m_next_page_addr                         0x200020a8   Data           4  pstorage.o(.data)
    m_state                                  0x200020ac   Data           1  pstorage.o(.data)
    m_swap_sub_state                         0x200020ad   Data           1  pstorage.o(.data)
    m_head_word_size                         0x200020b0   Data           4  pstorage.o(.data)
    m_tail_word_size                         0x200020b4   Data           4  pstorage.o(.data)
    m_current_page_id                        0x200020b8   Data           4  pstorage.o(.data)
    m_num_of_command_retries                 0x200020bc   Data           4  pstorage.o(.data)
    m_num_of_bytes_written                   0x200020c0   Data           4  pstorage.o(.data)
    m_app_data_size                          0x200020c4   Data           4  pstorage.o(.data)
    m_flags                                  0x200020c8   Data           4  pstorage.o(.data)
    .data                                    0x200020cc   Section       34  app_timer.o(.data)
    m_user_array_size                        0x200020cc   Data           1  app_timer.o(.data)
    mp_users                                 0x200020d0   Data           4  app_timer.o(.data)
    mp_timer_id_head                         0x200020d4   Data           4  app_timer.o(.data)
    m_ticks_latest                           0x200020d8   Data           4  app_timer.o(.data)
    m_ticks_elapsed                          0x200020dc   Data           8  app_timer.o(.data)
    m_ticks_elapsed_q_read_ind               0x200020e4   Data           1  app_timer.o(.data)
    m_ticks_elapsed_q_write_ind              0x200020e5   Data           1  app_timer.o(.data)
    m_evt_schedule_func                      0x200020e8   Data           4  app_timer.o(.data)
    m_rtc1_running                           0x200020ec   Data           1  app_timer.o(.data)
    m_rtc1_reset                             0x200020ed   Data           1  app_timer.o(.data)
    .data                                    0x200020f0   Section        8  retarget.o(.data)
    .data                                    0x200020f8   Section        7  app_uart_fifo.o(.data)
    m_event_handler                          0x200020f8   Data           4  app_uart_fifo.o(.data)
    tx_buffer                                0x200020fc   Data           1  app_uart_fifo.o(.data)
    tx_tmp                                   0x200020fd   Data           1  app_uart_fifo.o(.data)
    rx_buffer                                0x200020fe   Data           1  app_uart_fifo.o(.data)
    .data                                    0x20002100   Section       24  softdevice_handler.o(.data)
    m_evt_schedule_func                      0x20002100   Data           4  softdevice_handler.o(.data)
    m_softdevice_enabled                     0x20002104   Data           1  softdevice_handler.o(.data)
    mp_ble_evt_buffer                        0x20002108   Data           4  softdevice_handler.o(.data)
    m_ble_evt_buffer_size                    0x2000210c   Data           2  softdevice_handler.o(.data)
    m_ble_evt_handler                        0x20002110   Data           4  softdevice_handler.o(.data)
    m_sys_evt_handler                        0x20002114   Data           4  softdevice_handler.o(.data)
    .bss                                     0x20002118   Section      700  main.o(.bss)
    APP_TIMER_BUF                            0x20002134   Data         600  main.o(.bss)
    EVT_BUFFER                               0x2000238c   Data          72  main.o(.bss)
    .bss                                     0x200023d4   Section       32  ofo_led.o(.bss)
    LED_timer_id_data                        0x200023d4   Data          32  ofo_led.o(.bss)
    .bss                                     0x200023f4   Section      532  ofo_uart.o(.bss)
    data_array                               0x200023f4   Data          20  ofo_uart.o(.bss)
    rx_buf                                   0x20002408   Data         256  ofo_uart.o(.bss)
    tx_buf                                   0x20002508   Data         256  ofo_uart.o(.bss)
    .bss                                     0x20002608   Section       32  ofo_buzz.o(.bss)
    Buzz_timer_id_data                       0x20002608   Data          32  ofo_buzz.o(.bss)
    .bss                                     0x20002628   Section       32  ofo_lock.o(.bss)
    Lock_timer_id_data                       0x20002628   Data          32  ofo_lock.o(.bss)
    .bss                                     0x20002648   Section       32  ofo_key_unlock.o(.bss)
    Key_unlock_timer_id_data                 0x20002648   Data          32  ofo_key_unlock.o(.bss)
    .bss                                     0x20002668   Section      259  ble_advertising.o(.bss)
    m_advdata                                0x20002668   Data          56  ble_advertising.o(.bss)
    m_adv_modes_config                       0x200026a0   Data          36  ble_advertising.o(.bss)
    m_whitelist                              0x200026c4   Data          16  ble_advertising.o(.bss)
    mp_whitelist_addr                        0x200026d4   Data          32  ble_advertising.o(.bss)
    mp_whitelist_irk                         0x200026f4   Data          32  ble_advertising.o(.bss)
    m_manuf_specific_data                    0x20002714   Data          12  ble_advertising.o(.bss)
    m_manuf_data_array                       0x20002720   Data          31  ble_advertising.o(.bss)
    m_service_data                           0x20002740   Data          12  ble_advertising.o(.bss)
    m_service_data_array                     0x2000274c   Data          31  ble_advertising.o(.bss)
    .bss                                     0x2000276c   Section       60  ble_conn_params.o(.bss)
    m_conn_params_config                     0x2000276c   Data          28  ble_conn_params.o(.bss)
    m_conn_params_timer_id_data              0x20002788   Data          32  ble_conn_params.o(.bss)
    .bss                                     0x200027a8   Section       72  nrf_drv_gpiote.o(.bss)
    m_cb                                     0x200027a8   Data          72  nrf_drv_gpiote.o(.bss)
    .bss                                     0x200027f0   Section       24  nrf_drv_spi.o(.bss)
    m_cb                                     0x200027f0   Data          24  nrf_drv_spi.o(.bss)
    .bss                                     0x20002808   Section       24  nrf_drv_uart.o(.bss)
    m_cb                                     0x20002808   Data          24  nrf_drv_uart.o(.bss)
    .bss                                     0x20002820   Section      216  pstorage.o(.bss)
    m_cmd_queue                              0x20002820   Data         204  pstorage.o(.bss)
    m_app_table                              0x200028ec   Data          12  pstorage.o(.bss)
    .bss                                     0x200028f8   Section       32  app_uart_fifo.o(.bss)
    m_tx_fifo                                0x20002908   Data          16  app_uart_fifo.o(.bss)
    .bss                                     0x20002918   Section       96  libspace.o(.bss)
    HEAP                                     0x20002978   Section     2048  arm_startup_nrf51.o(HEAP)
    Heap_Mem                                 0x20002978   Data        2048  arm_startup_nrf51.o(HEAP)
    STACK                                    0x20003178   Section     2048  arm_startup_nrf51.o(STACK)
    Stack_Mem                                0x20003178   Data        2048  arm_startup_nrf51.o(STACK)
    __initial_sp                             0x20003978   Data           0  arm_startup_nrf51.o(STACK)

    Global Symbols

    Symbol Name                              Value     Ov Type        Size  Object(Section)

    BuildAttributes$$THM_ISAv3M$S$PE$A:L22$X:L11$S22$IEEE1$IW$USESV6$~STKCKD$USESV7$~SHL$OSPACE$ROPI$EBA8$UX$STANDARDLIB$REQ8$PRES8$EABIv2 0x00000000   Number         0  anon$$obj.o ABSOLUTE
    __ARM_use_no_argv                        0x00000000   Number         0  main.o ABSOLUTE
    __ARM_exceptions_init                     - Undefined Weak Reference
    __alloca_initialize                       - Undefined Weak Reference
    __arm_preinit_                            - Undefined Weak Reference
    __cpp_initialize__aeabi_                  - Undefined Weak Reference
    __cxa_finalize                            - Undefined Weak Reference
    __rt_locale                               - Undefined Weak Reference
    __sigvec_lookup                           - Undefined Weak Reference
    _atexit_init                              - Undefined Weak Reference
    _call_atexit_fns                          - Undefined Weak Reference
    _clock_init                               - Undefined Weak Reference
    _fp_trap_init                             - Undefined Weak Reference
    _fp_trap_shutdown                         - Undefined Weak Reference
    _get_lc_collate                           - Undefined Weak Reference
    _get_lc_ctype                             - Undefined Weak Reference
    _get_lc_monetary                          - Undefined Weak Reference
    _get_lc_numeric                           - Undefined Weak Reference
    _get_lc_time                              - Undefined Weak Reference
    _getenv_init                              - Undefined Weak Reference
    _handle_redirection                       - Undefined Weak Reference
    _init_alloc                               - Undefined Weak Reference
    _init_user_alloc                          - Undefined Weak Reference
    _initio                                   - Undefined Weak Reference
    _mutex_acquire                            - Undefined Weak Reference
    _mutex_release                            - Undefined Weak Reference
    _printf_mbtowc                            - Undefined Weak Reference
    _printf_post_padding                      - Undefined Weak Reference
    _printf_pre_padding                       - Undefined Weak Reference
    _printf_truncate_unsigned                 - Undefined Weak Reference
    _rand_init                                - Undefined Weak Reference
    _signal_finish                            - Undefined Weak Reference
    _signal_init                              - Undefined Weak Reference
    _terminate_alloc                          - Undefined Weak Reference
    _terminate_user_alloc                     - Undefined Weak Reference
    _terminateio                              - Undefined Weak Reference
    __Vectors_Size                           0x000000c0   Number         0  arm_startup_nrf51.o ABSOLUTE
    __Vectors                                0x00018000   Data           4  arm_startup_nrf51.o(RESET)
    __Vectors_End                            0x000180c0   Data           0  arm_startup_nrf51.o(RESET)
    __main                                   0x000180c1   Thumb Code     8  __main.o(!!!main)
    __scatterload                            0x000180c9   Thumb Code     0  __scatter.o(!!!scatter)
    __scatterload_rt2                        0x000180c9   Thumb Code    52  __scatter.o(!!!scatter)
    __scatterload_rt2_thumb_only             0x000180c9   Thumb Code     0  __scatter.o(!!!scatter)
    __scatterload_null                       0x000180d9   Thumb Code     0  __scatter.o(!!!scatter)
    __scatterload_copy                       0x00018105   Thumb Code    26  __scatter_copy.o(!!handler_copy)
    __scatterload_zeroinit                   0x00018121   Thumb Code    28  __scatter_zi.o(!!handler_zi)
    _printf_percent                          0x0001813d   Thumb Code     0  _printf_percent.o(.ARM.Collect$$_printf_percent$$00000000)
    _printf_x                                0x0001813f   Thumb Code     0  _printf_x.o(.ARM.Collect$$_printf_percent$$0000000C)
    _printf_percent_end                      0x00018149   Thumb Code     0  _printf_percent_end.o(.ARM.Collect$$_printf_percent$$00000017)
    __rt_lib_init                            0x0001814d   Thumb Code     0  libinit.o(.ARM.Collect$$libinit$$00000000)
    __rt_lib_init_alloca_1                   0x0001814f   Thumb Code     0  libinit2.o(.ARM.Collect$$libinit$$0000002E)
    __rt_lib_init_argv_1                     0x0001814f   Thumb Code     0  libinit2.o(.ARM.Collect$$libinit$$0000002C)
    __rt_lib_init_atexit_1                   0x0001814f   Thumb Code     0  libinit2.o(.ARM.Collect$$libinit$$0000001B)
    __rt_lib_init_clock_1                    0x0001814f   Thumb Code     0  libinit2.o(.ARM.Collect$$libinit$$00000021)
    __rt_lib_init_cpp_1                      0x0001814f   Thumb Code     0  libinit2.o(.ARM.Collect$$libinit$$00000032)
    __rt_lib_init_exceptions_1               0x0001814f   Thumb Code     0  libinit2.o(.ARM.Collect$$libinit$$00000030)
    __rt_lib_init_fp_1                       0x0001814f   Thumb Code     0  libinit2.o(.ARM.Collect$$libinit$$00000002)
    __rt_lib_init_fp_trap_1                  0x0001814f   Thumb Code     0  libinit2.o(.ARM.Collect$$libinit$$0000001F)
    __rt_lib_init_getenv_1                   0x0001814f   Thumb Code     0  libinit2.o(.ARM.Collect$$libinit$$00000023)
    __rt_lib_init_heap_1                     0x0001814f   Thumb Code     0  libinit2.o(.ARM.Collect$$libinit$$0000000A)
    __rt_lib_init_lc_collate_1               0x0001814f   Thumb Code     0  libinit2.o(.ARM.Collect$$libinit$$00000011)
    __rt_lib_init_lc_ctype_1                 0x0001814f   Thumb Code     0  libinit2.o(.ARM.Collect$$libinit$$00000013)
    __rt_lib_init_lc_monetary_1              0x0001814f   Thumb Code     0  libinit2.o(.ARM.Collect$$libinit$$00000015)
    __rt_lib_init_lc_numeric_1               0x0001814f   Thumb Code     0  libinit2.o(.ARM.Collect$$libinit$$00000017)
    __rt_lib_init_lc_time_1                  0x0001814f   Thumb Code     0  libinit2.o(.ARM.Collect$$libinit$$00000019)
    __rt_lib_init_preinit_1                  0x0001814f   Thumb Code     0  libinit2.o(.ARM.Collect$$libinit$$00000004)
    __rt_lib_init_rand_1                     0x0001814f   Thumb Code     0  libinit2.o(.ARM.Collect$$libinit$$0000000E)
    __rt_lib_init_return                     0x0001814f   Thumb Code     0  libinit2.o(.ARM.Collect$$libinit$$00000033)
    __rt_lib_init_signal_1                   0x0001814f   Thumb Code     0  libinit2.o(.ARM.Collect$$libinit$$0000001D)
    __rt_lib_init_stdio_1                    0x0001814f   Thumb Code     0  libinit2.o(.ARM.Collect$$libinit$$00000025)
    __rt_lib_init_user_alloc_1               0x0001814f   Thumb Code     0  libinit2.o(.ARM.Collect$$libinit$$0000000C)
    __rt_lib_shutdown                        0x00018151   Thumb Code     0  libshutdown.o(.ARM.Collect$$libshutdown$$00000000)
    __rt_lib_shutdown_fp_trap_1              0x00018153   Thumb Code     0  libshutdown2.o(.ARM.Collect$$libshutdown$$00000006)
    __rt_lib_shutdown_heap_1                 0x00018153   Thumb Code     0  libshutdown2.o(.ARM.Collect$$libshutdown$$0000000E)
    __rt_lib_shutdown_return                 0x00018153   Thumb Code     0  libshutdown2.o(.ARM.Collect$$libshutdown$$0000000F)
    __rt_lib_shutdown_signal_1               0x00018153   Thumb Code     0  libshutdown2.o(.ARM.Collect$$libshutdown$$00000009)
    __rt_lib_shutdown_stdio_1                0x00018153   Thumb Code     0  libshutdown2.o(.ARM.Collect$$libshutdown$$00000003)
    __rt_lib_shutdown_user_alloc_1           0x00018153   Thumb Code     0  libshutdown2.o(.ARM.Collect$$libshutdown$$0000000B)
    __rt_entry                               0x00018155   Thumb Code     0  __rtentry.o(.ARM.Collect$$rtentry$$00000000)
    __rt_entry_presh_1                       0x00018155   Thumb Code     0  __rtentry2.o(.ARM.Collect$$rtentry$$00000002)
    __rt_entry_sh                            0x00018155   Thumb Code     0  __rtentry4.o(.ARM.Collect$$rtentry$$00000004)
    __rt_entry_li                            0x0001815b   Thumb Code     0  __rtentry2.o(.ARM.Collect$$rtentry$$0000000A)
    __rt_entry_postsh_1                      0x0001815b   Thumb Code     0  __rtentry2.o(.ARM.Collect$$rtentry$$00000009)
    __rt_entry_main                          0x0001815f   Thumb Code     0  __rtentry2.o(.ARM.Collect$$rtentry$$0000000D)
    __rt_entry_postli_1                      0x0001815f   Thumb Code     0  __rtentry2.o(.ARM.Collect$$rtentry$$0000000C)
    __rt_exit                                0x00018167   Thumb Code     0  rtexit.o(.ARM.Collect$$rtexit$$00000000)
    __rt_exit_ls                             0x00018169   Thumb Code     0  rtexit2.o(.ARM.Collect$$rtexit$$00000003)
    __rt_exit_prels_1                        0x00018169   Thumb Code     0  rtexit2.o(.ARM.Collect$$rtexit$$00000002)
    __rt_exit_exit                           0x0001816d   Thumb Code     0  rtexit2.o(.ARM.Collect$$rtexit$$00000004)
    __asm___11_nrf_delay_c_532987f3__nrf_delay_us 0x00018175   Thumb Code    30  nrf_delay.o(.emb_text)
    __asm___11_app_timer_c_cd27f9c3__nrf_delay_us 0x00018195   Thumb Code    30  app_timer.o(.emb_text)
    __aeabi_memcpy4                          0x000181b5   Thumb Code    56  rt_memcpy.o(.emb_text)
    __aeabi_memcpy8                          0x000181b5   Thumb Code     0  rt_memcpy.o(.emb_text)
    Reset_Handler                            0x000181ed   Thumb Code    26  arm_startup_nrf51.o(.text)
    NMI_Handler                              0x00018207   Thumb Code     2  arm_startup_nrf51.o(.text)
    HardFault_Handler                        0x00018209   Thumb Code     2  arm_startup_nrf51.o(.text)
    SVC_Handler                              0x0001820b   Thumb Code     2  arm_startup_nrf51.o(.text)
    PendSV_Handler                           0x0001820d   Thumb Code     2  arm_startup_nrf51.o(.text)
    SysTick_Handler                          0x0001820f   Thumb Code     2  arm_startup_nrf51.o(.text)
    CCM_AAR_IRQHandler                       0x00018211   Thumb Code     0  arm_startup_nrf51.o(.text)
    ECB_IRQHandler                           0x00018211   Thumb Code     0  arm_startup_nrf51.o(.text)
    LPCOMP_IRQHandler                        0x00018211   Thumb Code     0  arm_startup_nrf51.o(.text)
    POWER_CLOCK_IRQHandler                   0x00018211   Thumb Code     0  arm_startup_nrf51.o(.text)
    QDEC_IRQHandler                          0x00018211   Thumb Code     0  arm_startup_nrf51.o(.text)
    RADIO_IRQHandler                         0x00018211   Thumb Code     0  arm_startup_nrf51.o(.text)
    RNG_IRQHandler                           0x00018211   Thumb Code     0  arm_startup_nrf51.o(.text)
    RTC0_IRQHandler                          0x00018211   Thumb Code     0  arm_startup_nrf51.o(.text)
    SPI1_TWI1_IRQHandler                     0x00018211   Thumb Code     0  arm_startup_nrf51.o(.text)
    SWI1_IRQHandler                          0x00018211   Thumb Code     0  arm_startup_nrf51.o(.text)
    SWI3_IRQHandler                          0x00018211   Thumb Code     0  arm_startup_nrf51.o(.text)
    SWI4_IRQHandler                          0x00018211   Thumb Code     0  arm_startup_nrf51.o(.text)
    SWI5_IRQHandler                          0x00018211   Thumb Code     0  arm_startup_nrf51.o(.text)
    TEMP_IRQHandler                          0x00018211   Thumb Code     0  arm_startup_nrf51.o(.text)
    TIMER0_IRQHandler                        0x00018211   Thumb Code     0  arm_startup_nrf51.o(.text)
    TIMER1_IRQHandler                        0x00018211   Thumb Code     0  arm_startup_nrf51.o(.text)
    TIMER2_IRQHandler                        0x00018211   Thumb Code     0  arm_startup_nrf51.o(.text)
    __user_initial_stackheap                 0x00018215   Thumb Code     0  arm_startup_nrf51.o(.text)
    __2printf                                0x00018241   Thumb Code    22  noretval__2printf.o(.text)
    __printf                                 0x0001825d   Thumb Code   108  __printf.o(.text)
    _printf_int_hex                          0x000182c9   Thumb Code    84  _printf_hex_int.o(.text)
    _printf_longlong_hex                     0x000182c9   Thumb Code     0  _printf_hex_int.o(.text)
    __aeabi_memcpy                           0x00018321   Thumb Code   130  rt_memcpy.o(.text)
    __rt_memcpy                              0x00018321   Thumb Code     0  rt_memcpy.o(.text)
    _memset_w                                0x000183a3   Thumb Code    26  rt_memclr.o(.text)
    _memset                                  0x000183bd   Thumb Code    30  rt_memclr.o(.text)
    __aeabi_memclr                           0x000183db   Thumb Code     4  rt_memclr.o(.text)
    __rt_memclr                              0x000183db   Thumb Code     0  rt_memclr.o(.text)
    __aeabi_memclr4                          0x000183df   Thumb Code     0  rt_memclr.o(.text)
    __aeabi_memclr8                          0x000183df   Thumb Code     0  rt_memclr.o(.text)
    __rt_memclr_w                            0x000183df   Thumb Code     4  rt_memclr.o(.text)
    strcmp                                   0x000183e5   Thumb Code   132  strcmp.o(.text)
    __aeabi_uidiv                            0x0001846d   Thumb Code     0  aeabi_sdiv.o(.text)
    __aeabi_uidivmod                         0x0001846d   Thumb Code    20  aeabi_sdiv.o(.text)
    __aeabi_idiv                             0x00018481   Thumb Code     0  aeabi_sdiv.o(.text)
    __aeabi_idivmod                          0x00018481   Thumb Code   326  aeabi_sdiv.o(.text)
    __use_two_region_memory                  0x000185c7   Thumb Code     2  heapauxi.o(.text)
    __rt_heap_escrow$2region                 0x000185c9   Thumb Code     2  heapauxi.o(.text)
    __rt_heap_expand$2region                 0x000185cb   Thumb Code     2  heapauxi.o(.text)
    __aeabi_d2iz                             0x000185cd   Thumb Code     0  dfixi.o(.text)
    _dfix                                    0x000185cd   Thumb Code    98  dfixi.o(.text)
    __aeabi_i2d_normalise                    0x00018639   Thumb Code    66  dflti.o(.text)
    __aeabi_i2d                              0x0001867b   Thumb Code    16  dflti.o(.text)
    _dflt                                    0x0001867b   Thumb Code     0  dflti.o(.text)
    __aeabi_ui2d                             0x0001868b   Thumb Code     6  dflti.o(.text)
    _dfltu                                   0x0001868b   Thumb Code     0  dflti.o(.text)
    __aeabi_dmul                             0x00018691   Thumb Code     0  dmul.o(.text)
    _dmul                                    0x00018691   Thumb Code   558  dmul.o(.text)
    _printf_int_common                       0x000188d9   Thumb Code   176  _printf_intcommon.o(.text)
    _printf_char_file                        0x00018989   Thumb Code    34  _printf_char_file.o(.text)
    _printf_char_common                      0x000189bb   Thumb Code    32  _printf_char_common.o(.text)
    ferror                                   0x000189e1   Thumb Code     8  ferror.o(.text)
    __user_setup_stackheap                   0x000189e9   Thumb Code    62  sys_stackheap_outer.o(.text)
    exit                                     0x00018a27   Thumb Code    12  exit.o(.text)
    __user_libspace                          0x00018a35   Thumb Code     8  libspace.o(.text)
    __user_perproc_libspace                  0x00018a35   Thumb Code     0  libspace.o(.text)
    __user_perthread_libspace                0x00018a35   Thumb Code     0  libspace.o(.text)
    _sys_exit                                0x00018a3d   Thumb Code     8  sys_exit.o(.text)
    __I$use$semihosting                      0x00018a49   Thumb Code     0  use_no_semi.o(.text)
    __use_no_semihosting_swi                 0x00018a49   Thumb Code     2  use_no_semi.o(.text)
    __semihosting_library_function           0x00018a4b   Thumb Code     0  indicate_semi.o(.text)
    ADC_IRQHandler                           0x00018a4d   Thumb Code    48  ofo_adc.o(i.ADC_IRQHandler)
    Buzz_init                                0x00018a8d   Thumb Code    50  ofo_buzz.o(i.Buzz_init)
    GPIOTE_IRQHandler                        0x00018ac9   Thumb Code   378  nrf_drv_gpiote.o(i.GPIOTE_IRQHandler)
    KeyCVoice                                0x00018c55   Thumb Code    14  ofo_buzz.o(i.KeyCVoice)
    KeyVoice                                 0x00018c69   Thumb Code    14  ofo_buzz.o(i.KeyVoice)
    LED_flash                                0x00018c7d   Thumb Code    32  ofo_led.o(i.LED_flash)
    LED_flash_init                           0x00018ca9   Thumb Code    40  ofo_led.o(i.LED_flash_init)
    OpenLockTime                             0x00018f31   Thumb Code    56  ofo_lock.o(i.OpenLockTime)
    PlayVoice                                0x00018f71   Thumb Code    90  ofo_buzz.o(i.PlayVoice)
    RTC1_IRQHandler                          0x00018fdd   Thumb Code    34  app_timer.o(i.RTC1_IRQHandler)
    SPI0_TWI0_IRQHandler                     0x00019005   Thumb Code    12  nrf_drv_spi.o(i.SPI0_TWI0_IRQHandler)
    SWI0_IRQHandler                          0x00019019   Thumb Code     8  app_timer.o(i.SWI0_IRQHandler)
    SWI2_IRQHandler                          0x00019021   Thumb Code    50  softdevice_handler.o(i.SWI2_IRQHandler)
    SystemInit                               0x00019059   Thumb Code    38  system_nrf51.o(i.SystemInit)
    UART0_IRQHandler                         0x00019091   Thumb Code   304  nrf_drv_uart.o(i.UART0_IRQHandler)
    VoicePasswordErr                         0x000191c9   Thumb Code    14  ofo_buzz.o(i.VoicePasswordErr)
    VoicePasswordOK                          0x000191dd   Thumb Code    14  ofo_buzz.o(i.VoicePasswordOK)
    WDT_IRQHandler                           0x000191f1   Thumb Code    46  nrf_drv_wdt.o(i.WDT_IRQHandler)
    __ARM_common_switch8                     0x0001922d   Thumb Code    28  ofo_led.o(i.__ARM_common_switch8)
    adc_config                               0x00019249   Thumb Code    94  ofo_adc.o(i.adc_config)
    adv_data_encode                          0x000192bd   Thumb Code   444  ble_advdata.o(i.adv_data_encode)
    app_error_handler                        0x00019549   Thumb Code    48  app_error.o(i.app_error_handler)
    app_fifo_flush                           0x00019581   Thumb Code    10  app_fifo.o(i.app_fifo_flush)
    app_fifo_get                             0x0001958b   Thumb Code    32  app_fifo.o(i.app_fifo_get)
    app_fifo_init                            0x000195ab   Thumb Code    42  app_fifo.o(i.app_fifo_init)
    app_fifo_put                             0x000195d5   Thumb Code    34  app_fifo.o(i.app_fifo_put)
    app_timer_create                         0x0001964d   Thumb Code    60  app_timer.o(i.app_timer_create)
    app_timer_init                           0x0001968d   Thumb Code   156  app_timer.o(i.app_timer_init)
    app_timer_start                          0x00019745   Thumb Code    82  app_timer.o(i.app_timer_start)
    app_timer_stop                           0x0001979d   Thumb Code    50  app_timer.o(i.app_timer_stop)
    app_uart_close                           0x000197d5   Thumb Code    10  app_uart_fifo.o(i.app_uart_close)
    app_uart_flush                           0x000197e1   Thumb Code    38  app_uart_fifo.o(i.app_uart_flush)
    app_uart_get                             0x00019811   Thumb Code    48  app_uart_fifo.o(i.app_uart_get)
    app_uart_init                            0x00019849   Thumb Code   168  app_uart_fifo.o(i.app_uart_init)
    app_uart_put                             0x00019909   Thumb Code    34  app_uart_fifo.o(i.app_uart_put)
    ble_advdata_set                          0x000199f5   Thumb Code   136  ble_advdata.o(i.ble_advdata_set)
    ble_advertising_init                     0x00019a7d   Thumb Code   316  ble_advertising.o(i.ble_advertising_init)
    ble_advertising_on_ble_evt               0x00019bf1   Thumb Code   236  ble_advertising.o(i.ble_advertising_on_ble_evt)
    ble_advertising_start                    0x00019d05   Thumb Code   654  ble_advertising.o(i.ble_advertising_start)
    ble_conn_params_init                     0x00019fc1   Thumb Code    90  ble_conn_params.o(i.ble_conn_params_init)
    ble_conn_params_on_ble_evt               0x0001a039   Thumb Code    62  ble_conn_params.o(i.ble_conn_params_on_ble_evt)
    ble_nus_init                             0x0001a109   Thumb Code   128  ble_nus.o(i.ble_nus_init)
    ble_nus_on_ble_evt                       0x0001a18d   Thumb Code    70  ble_nus.o(i.ble_nus_on_ble_evt)
    button_event_handler                     0x0001a279   Thumb Code   378  ofo_key_unlock.o(i.button_event_handler)
    flash_init                               0x0001ad21   Thumb Code    14  ofo_flash.o(i.flash_init)
    flash_regeist                            0x0001ae0d   Thumb Code    28  ofo_flash.o(i.flash_regeist)
    fputc                                    0x0001ae49   Thumb Code    16  retarget.o(i.fputc)
    gpio_init                                0x0001aee1   Thumb Code   112  main.o(i.gpio_init)
    gpiote_int_init                          0x0001af51   Thumb Code   324  ofo_key_unlock.o(i.gpiote_int_init)
    intern_softdevice_events_execute         0x0001b10d   Thumb Code   168  softdevice_handler.o(i.intern_softdevice_events_execute)
    key_unlock_init                          0x0001b35d   Thumb Code    44  ofo_key_unlock.o(i.key_unlock_init)
    led_action_stop                          0x0001b451   Thumb Code    26  ofo_led.o(i.led_action_stop)
    lock_set_init                            0x0001b61d   Thumb Code   122  ofo_lock.o(i.lock_set_init)
    main                                     0x0001b76d   Thumb Code   100  main.o(i.main)
    nrf_adc_configure                        0x0001b92d   Thumb Code    74  nrf_adc.o(i.nrf_adc_configure)
    nrf_delay_ms                             0x0001b9a5   Thumb Code    24  nrf_delay.o(i.nrf_delay_ms)
    nrf_drv_common_irq_enable                0x0001b9c1   Thumb Code    48  nrf_drv_common.o(i.nrf_drv_common_irq_enable)
    nrf_drv_gpiote_in_event_disable          0x0001b9f9   Thumb Code    88  nrf_drv_gpiote.o(i.nrf_drv_gpiote_in_event_disable)
    nrf_drv_gpiote_in_event_enable           0x0001ba59   Thumb Code   186  nrf_drv_gpiote.o(i.nrf_drv_gpiote_in_event_enable)
    nrf_drv_gpiote_in_init                   0x0001bb21   Thumb Code   228  nrf_drv_gpiote.o(i.nrf_drv_gpiote_in_init)
    nrf_drv_gpiote_init                      0x0001bc15   Thumb Code    76  nrf_drv_gpiote.o(i.nrf_drv_gpiote_init)
    nrf_drv_uart_init                        0x0001bc65   Thumb Code   110  nrf_drv_uart.o(i.nrf_drv_uart_init)
    nrf_drv_uart_rx                          0x0001bce5   Thumb Code   216  nrf_drv_uart.o(i.nrf_drv_uart_rx)
    nrf_drv_uart_rx_enable                   0x0001bdc5   Thumb Code    22  nrf_drv_uart.o(i.nrf_drv_uart_rx_enable)
    nrf_drv_uart_tx                          0x0001bde1   Thumb Code   170  nrf_drv_uart.o(i.nrf_drv_uart_tx)
    nrf_drv_uart_uninit                      0x0001be95   Thumb Code    74  nrf_drv_uart.o(i.nrf_drv_uart_uninit)
    nrf_drv_wdt_channel_alloc                0x0001bef1   Thumb Code   158  nrf_drv_wdt.o(i.nrf_drv_wdt_channel_alloc)
    nrf_drv_wdt_init                         0x0001bf99   Thumb Code    76  nrf_drv_wdt.o(i.nrf_drv_wdt_init)
    pstorage_access_status_get               0x0001c5cd   Thumb Code    40  pstorage.o(i.pstorage_access_status_get)
    pstorage_init                            0x0001c631   Thumb Code   104  pstorage.o(i.pstorage_init)
    pstorage_register                        0x0001c6b9   Thumb Code   270  pstorage.o(i.pstorage_register)
    pstorage_sys_event_handler               0x0001c7d9   Thumb Code    66  pstorage.o(i.pstorage_sys_event_handler)
    softdevice_assertion_handler             0x0001cbfd   Thumb Code    18  softdevice_handler.o(i.softdevice_assertion_handler)
    softdevice_ble_evt_handler_set           0x0001cc11   Thumb Code    18  softdevice_handler.o(i.softdevice_ble_evt_handler_set)
    softdevice_handler_init                  0x0001cc29   Thumb Code    84  softdevice_handler.o(i.softdevice_handler_init)
    softdevice_sys_evt_handler_set           0x0001cc91   Thumb Code    18  softdevice_handler.o(i.softdevice_sys_evt_handler_set)
    switch_event_handler                     0x0001cffd   Thumb Code    84  ofo_lock.o(i.switch_event_handler)
    timer_init                               0x0001d155   Thumb Code    46  main.o(i.timer_init)
    uart_event_handle                        0x0001d631   Thumb Code   168  ofo_uart.o(i.uart_event_handle)
    uart_init                                0x0001d7a1   Thumb Code   100  ofo_uart.o(i.uart_init)
    wdt_event_handler                        0x0001da41   Thumb Code     2  ofo_wdt.o(i.wdt_event_handler)
    wdt_init                                 0x0001da45   Thumb Code    84  ofo_wdt.o(i.wdt_init)
    __I$use$fp                               0x0001daba   Number         0  usenofp.o(x$fpl$usenofp)
    led_pin_array                            0x0001dac0   Data           3  ofo_led.o(.constdata)
    Green_LED_flash                          0x0001dac3   Data           2  ofo_led.o(.constdata)
    Red_LED_flash                            0x0001dac5   Data           2  ofo_led.o(.constdata)
    Green_Red_flash                          0x0001dac7   Data           2  ofo_led.o(.constdata)
    all_flash                                0x0001dac9   Data           2  ofo_led.o(.constdata)
    KEY_TONE                                 0x0001dae0   Data           2  ofo_buzz.o(.constdata)
    KEYC_TONE                                0x0001dae2   Data           2  ofo_buzz.o(.constdata)
    PasswordOK_TONE                          0x0001dae4   Data           2  ofo_buzz.o(.constdata)
    PasswordERR_TONE                         0x0001dae6   Data           2  ofo_buzz.o(.constdata)
    LockClose_TONE                           0x0001dae8   Data           2  ofo_buzz.o(.constdata)
    Region$$Table$$Base                      0x0001dbc4   Number         0  anon$$obj.o(Region$$Table)
    Region$$Table$$Limit                     0x0001dbe4   Number         0  anon$$obj.o(Region$$Table)
    m_conn_handle                            0x20002000   Data           2  main.o(.data)
    m_app_ticks_per_100ms                    0x20002008   Data           4  main.o(.data)
    LED_flash_loop_times                     0x2000200c   Data           2  ofo_led.o(.data)
    LED_flash_types                          0x2000200e   Data           1  ofo_led.o(.data)
    adc_sample                               0x20002014   Data           4  ofo_adc.o(.data)
    m_channel_id                             0x20002018   Data           1  ofo_wdt.o(.data)
    UartSt                                   0x20002019   Data           1  ofo_uart.o(.data)
    store_flag                               0x2000201c   Data           1  ofo_flash.o(.data)
    update_flag                              0x2000201d   Data           1  ofo_flash.o(.data)
    load_flag                                0x2000201e   Data           1  ofo_flash.o(.data)
    clear_flag                               0x2000201f   Data           1  ofo_flash.o(.data)
    m_flash_handle                           0x20002020   Data           8  ofo_flash.o(.data)
    base_flash_handle                        0x20002028   Data           8  ofo_flash.o(.data)
    buzz_st                                  0x20002030   Data           1  ofo_buzz.o(.data)
    buzz_index                               0x20002031   Data           1  ofo_buzz.o(.data)
    Tone                                     0x20002032   Data           2  ofo_buzz.o(.data)
    lock_st                                  0x20002038   Data           4  ofo_lock.o(.data)
    lock_pass_word                           0x2000204a   Data          14  ofo_key_unlock.o(.data)
    accredit                                 0x20002058   Data           1  ofo_factory_test.o(.data)
    lock1_test                               0x20002059   Data           1  ofo_factory_test.o(.data)
    lock2_test                               0x2000205a   Data           1  ofo_factory_test.o(.data)
    SystemCoreClock                          0x2000205c   Data           4  system_nrf51.o(.data)
    __stdout                                 0x200020f0   Data           4  retarget.o(.data)
    __stdin                                  0x200020f4   Data           4  retarget.o(.data)
    m_nus                                    0x20002118   Data          28  main.o(.bss)
    m_rx_fifo                                0x200028f8   Data          16  app_uart_fifo.o(.bss)
    __libspace_start                         0x20002918   Data          96  libspace.o(.bss)
    __temporary_stack_top$libspace           0x20002978   Data           0  libspace.o(.bss)



==============================================================================

Memory Map of the image

  Image Entry point : 0x000180c1

  Load Region LR_IROM1 (Base: 0x00018000, Size: 0x00005cfc, Max: 0x00028000, ABSOLUTE)

    Execution Region ER_IROM1 (Base: 0x00018000, Size: 0x00005be4, Max: 0x00028000, ABSOLUTE)

    Base Addr    Size         Type   Attr      Idx    E Section Name        Object

    0x00018000   0x000000c0   Data   RO         1277    RESET               arm_startup_nrf51.o
    0x000180c0   0x00000008   Code   RO         3416  * !!!main             c_p.l(__main.o)
    0x000180c8   0x0000003c   Code   RO         3606    !!!scatter          c_p.l(__scatter.o)
    0x00018104   0x0000001a   Code   RO         3608    !!handler_copy      c_p.l(__scatter_copy.o)
    0x0001811e   0x00000002   PAD
    0x00018120   0x0000001c   Code   RO         3610    !!handler_zi        c_p.l(__scatter_zi.o)
    0x0001813c   0x00000002   Code   RO         3399    .ARM.Collect$$_printf_percent$$00000000  c_p.l(_printf_percent.o)
    0x0001813e   0x0000000a   Code   RO         3398    .ARM.Collect$$_printf_percent$$0000000C  c_p.l(_printf_x.o)
    0x00018148   0x00000004   Code   RO         3435    .ARM.Collect$$_printf_percent$$00000017  c_p.l(_printf_percent_end.o)
    0x0001814c   0x00000002   Code   RO         3476    .ARM.Collect$$libinit$$00000000  c_p.l(libinit.o)
    0x0001814e   0x00000000   Code   RO         3490    .ARM.Collect$$libinit$$00000002  c_p.l(libinit2.o)
    0x0001814e   0x00000000   Code   RO         3492    .ARM.Collect$$libinit$$00000004  c_p.l(libinit2.o)
    0x0001814e   0x00000000   Code   RO         3495    .ARM.Collect$$libinit$$0000000A  c_p.l(libinit2.o)
    0x0001814e   0x00000000   Code   RO         3497    .ARM.Collect$$libinit$$0000000C  c_p.l(libinit2.o)
    0x0001814e   0x00000000   Code   RO         3499    .ARM.Collect$$libinit$$0000000E  c_p.l(libinit2.o)
    0x0001814e   0x00000000   Code   RO         3502    .ARM.Collect$$libinit$$00000011  c_p.l(libinit2.o)
    0x0001814e   0x00000000   Code   RO         3504    .ARM.Collect$$libinit$$00000013  c_p.l(libinit2.o)
    0x0001814e   0x00000000   Code   RO         3506    .ARM.Collect$$libinit$$00000015  c_p.l(libinit2.o)
    0x0001814e   0x00000000   Code   RO         3508    .ARM.Collect$$libinit$$00000017  c_p.l(libinit2.o)
    0x0001814e   0x00000000   Code   RO         3510    .ARM.Collect$$libinit$$00000019  c_p.l(libinit2.o)
    0x0001814e   0x00000000   Code   RO         3512    .ARM.Collect$$libinit$$0000001B  c_p.l(libinit2.o)
    0x0001814e   0x00000000   Code   RO         3514    .ARM.Collect$$libinit$$0000001D  c_p.l(libinit2.o)
    0x0001814e   0x00000000   Code   RO         3516    .ARM.Collect$$libinit$$0000001F  c_p.l(libinit2.o)
    0x0001814e   0x00000000   Code   RO         3518    .ARM.Collect$$libinit$$00000021  c_p.l(libinit2.o)
    0x0001814e   0x00000000   Code   RO         3520    .ARM.Collect$$libinit$$00000023  c_p.l(libinit2.o)
    0x0001814e   0x00000000   Code   RO         3522    .ARM.Collect$$libinit$$00000025  c_p.l(libinit2.o)
    0x0001814e   0x00000000   Code   RO         3526    .ARM.Collect$$libinit$$0000002C  c_p.l(libinit2.o)
    0x0001814e   0x00000000   Code   RO         3528    .ARM.Collect$$libinit$$0000002E  c_p.l(libinit2.o)
    0x0001814e   0x00000000   Code   RO         3530    .ARM.Collect$$libinit$$00000030  c_p.l(libinit2.o)
    0x0001814e   0x00000000   Code   RO         3532    .ARM.Collect$$libinit$$00000032  c_p.l(libinit2.o)
    0x0001814e   0x00000002   Code   RO         3533    .ARM.Collect$$libinit$$00000033  c_p.l(libinit2.o)
    0x00018150   0x00000002   Code   RO         3564    .ARM.Collect$$libshutdown$$00000000  c_p.l(libshutdown.o)
    0x00018152   0x00000000   Code   RO         3591    .ARM.Collect$$libshutdown$$00000003  c_p.l(libshutdown2.o)
    0x00018152   0x00000000   Code   RO         3594    .ARM.Collect$$libshutdown$$00000006  c_p.l(libshutdown2.o)
    0x00018152   0x00000000   Code   RO         3597    .ARM.Collect$$libshutdown$$00000009  c_p.l(libshutdown2.o)
    0x00018152   0x00000000   Code   RO         3599    .ARM.Collect$$libshutdown$$0000000B  c_p.l(libshutdown2.o)
    0x00018152   0x00000000   Code   RO         3602    .ARM.Collect$$libshutdown$$0000000E  c_p.l(libshutdown2.o)
    0x00018152   0x00000002   Code   RO         3603    .ARM.Collect$$libshutdown$$0000000F  c_p.l(libshutdown2.o)
    0x00018154   0x00000000   Code   RO         3424    .ARM.Collect$$rtentry$$00000000  c_p.l(__rtentry.o)
    0x00018154   0x00000000   Code   RO         3438    .ARM.Collect$$rtentry$$00000002  c_p.l(__rtentry2.o)
    0x00018154   0x00000006   Code   RO         3450    .ARM.Collect$$rtentry$$00000004  c_p.l(__rtentry4.o)
    0x0001815a   0x00000000   Code   RO         3440    .ARM.Collect$$rtentry$$00000009  c_p.l(__rtentry2.o)
    0x0001815a   0x00000004   Code   RO         3441    .ARM.Collect$$rtentry$$0000000A  c_p.l(__rtentry2.o)
    0x0001815e   0x00000000   Code   RO         3443    .ARM.Collect$$rtentry$$0000000C  c_p.l(__rtentry2.o)
    0x0001815e   0x00000008   Code   RO         3444    .ARM.Collect$$rtentry$$0000000D  c_p.l(__rtentry2.o)
    0x00018166   0x00000002   Code   RO         3481    .ARM.Collect$$rtexit$$00000000  c_p.l(rtexit.o)
    0x00018168   0x00000000   Code   RO         3537    .ARM.Collect$$rtexit$$00000002  c_p.l(rtexit2.o)
    0x00018168   0x00000004   Code   RO         3538    .ARM.Collect$$rtexit$$00000003  c_p.l(rtexit2.o)
    0x0001816c   0x00000006   Code   RO         3539    .ARM.Collect$$rtexit$$00000004  c_p.l(rtexit2.o)
    0x00018172   0x00000002   PAD
    0x00018174   0x0000001e   Code   RO         1716    .emb_text           nrf_delay.o
    0x00018192   0x00000002   PAD
    0x00018194   0x0000001e   Code   RO         2942    .emb_text           app_timer.o
    0x000181b2   0x00000002   PAD
    0x000181b4   0x00000038   Code   RO         3402    .emb_text           c_p.l(rt_memcpy.o)
    0x000181ec   0x00000054   Code   RO         1278    .text               arm_startup_nrf51.o
    0x00018240   0x0000001c   Code   RO         3350    .text               c_p.l(noretval__2printf.o)
    0x0001825c   0x0000006c   Code   RO         3352    .text               c_p.l(__printf.o)
    0x000182c8   0x00000058   Code   RO         3359    .text               c_p.l(_printf_hex_int.o)
    0x00018320   0x00000082   Code   RO         3403    .text               c_p.l(rt_memcpy.o)
    0x000183a2   0x00000040   Code   RO         3406    .text               c_p.l(rt_memclr.o)
    0x000183e2   0x00000002   PAD
    0x000183e4   0x00000088   Code   RO         3408    .text               c_p.l(strcmp.o)
    0x0001846c   0x0000015a   Code   RO         3410    .text               c_p.l(aeabi_sdiv.o)
    0x000185c6   0x00000006   Code   RO         3414    .text               c_p.l(heapauxi.o)
    0x000185cc   0x0000006c   Code   RO         3418    .text               fz_ps.l(dfixi.o)
    0x00018638   0x00000058   Code   RO         3420    .text               fz_ps.l(dflti.o)
    0x00018690   0x00000248   Code   RO         3422    .text               fz_ps.l(dmul.o)
    0x000188d8   0x000000b0   Code   RO         3429    .text               c_p.l(_printf_intcommon.o)
    0x00018988   0x00000028   Code   RO         3433    .text               c_p.l(_printf_char_file.o)
    0x000189b0   0x00000030   Code   RO         3454    .text               c_p.l(_printf_char_common.o)
    0x000189e0   0x00000008   Code   RO         3456    .text               c_p.l(ferror.o)
    0x000189e8   0x0000003e   Code   RO         3460    .text               c_p.l(sys_stackheap_outer.o)
    0x00018a26   0x0000000c   Code   RO         3465    .text               c_p.l(exit.o)
    0x00018a32   0x00000002   PAD
    0x00018a34   0x00000008   Code   RO         3477    .text               c_p.l(libspace.o)
    0x00018a3c   0x0000000c   Code   RO         3534    .text               c_p.l(sys_exit.o)
    0x00018a48   0x00000002   Code   RO         3553    .text               c_p.l(use_no_semi.o)
    0x00018a4a   0x00000000   Code   RO         3555    .text               c_p.l(indicate_semi.o)
    0x00018a4a   0x00000002   PAD
    0x00018a4c   0x00000040   Code   RO          378    i.ADC_IRQHandler    ofo_adc.o
    0x00018a8c   0x0000003c   Code   RO          583    i.Buzz_init         ofo_buzz.o
    0x00018ac8   0x0000018c   Code   RO         1774    i.GPIOTE_IRQHandler  nrf_drv_gpiote.o
    0x00018c54   0x00000014   Code   RO          584    i.KeyCVoice         ofo_buzz.o
    0x00018c68   0x00000014   Code   RO          585    i.KeyVoice          ofo_buzz.o
    0x00018c7c   0x0000002c   Code   RO          311    i.LED_flash         ofo_led.o
    0x00018ca8   0x00000030   Code   RO          312    i.LED_flash_init    ofo_led.o
    0x00018cd8   0x000000b4   Code   RO          313    i.LED_timer_handler  ofo_led.o
    0x00018d8c   0x00000014   Code   RO         2943    i.NVIC_ClearPendingIRQ  app_timer.o
    0x00018da0   0x00000014   Code   RO         2944    i.NVIC_EnableIRQ    app_timer.o
    0x00018db4   0x00000014   Code   RO         2945    i.NVIC_SetPendingIRQ  app_timer.o
    0x00018dc8   0x00000078   Code   RO          379    i.NVIC_SetPriority  ofo_adc.o
    0x00018e40   0x00000078   Code   RO         1740    i.NVIC_SetPriority  nrf_drv_common.o
    0x00018eb8   0x00000078   Code   RO         2946    i.NVIC_SetPriority  app_timer.o
    0x00018f30   0x00000040   Code   RO          710    i.OpenLockTime      ofo_lock.o
    0x00018f70   0x0000006c   Code   RO          586    i.PlayVoice         ofo_buzz.o
    0x00018fdc   0x00000028   Code   RO         2947    i.RTC1_IRQHandler   app_timer.o
    0x00019004   0x00000014   Code   RO         2009    i.SPI0_TWI0_IRQHandler  nrf_drv_spi.o
    0x00019018   0x00000008   Code   RO         2948    i.SWI0_IRQHandler   app_timer.o
    0x00019020   0x00000038   Code   RO         3290    i.SWI2_IRQHandler   softdevice_handler.o
    0x00019058   0x00000038   Code   RO         1285    i.SystemInit        system_nrf51.o
    0x00019090   0x00000138   Code   RO         2123    i.UART0_IRQHandler  nrf_drv_uart.o
    0x000191c8   0x00000014   Code   RO          588    i.VoicePasswordErr  ofo_buzz.o
    0x000191dc   0x00000014   Code   RO          589    i.VoicePasswordOK   ofo_buzz.o
    0x000191f0   0x0000003c   Code   RO         2314    i.WDT_IRQHandler    nrf_drv_wdt.o
    0x0001922c   0x0000001c   Code   RO          358    i.__ARM_common_switch8  ofo_led.o
    0x00019248   0x00000074   Code   RO          380    i.adc_config        ofo_adc.o
    0x000192bc   0x000001bc   Code   RO         1324    i.adv_data_encode   ble_advdata.o
    0x00019478   0x00000014   Code   RO         1325    i.advdata_check     ble_advdata.o
    0x0001948c   0x0000009c   Code   RO            4    i.advertising_init  main.o
    0x00019528   0x00000020   Code   RO          314    i.all_led_flash_control  ofo_led.o
    0x00019548   0x00000038   Code   RO         2810    i.app_error_handler  app_error.o
    0x00019580   0x0000000a   Code   RO         2831    i.app_fifo_flush    app_fifo.o
    0x0001958a   0x00000020   Code   RO         2832    i.app_fifo_get      app_fifo.o
    0x000195aa   0x0000002a   Code   RO         2833    i.app_fifo_init     app_fifo.o
    0x000195d4   0x00000022   Code   RO         2834    i.app_fifo_put      app_fifo.o
    0x000195f6   0x00000002   PAD
    0x000195f8   0x00000030   Code   RO         2389    i.app_notify        pstorage.o
    0x00019628   0x00000024   Code   RO         2390    i.app_notify_error_state_transit  pstorage.o
    0x0001964c   0x00000040   Code   RO         2951    i.app_timer_create  app_timer.o
    0x0001968c   0x000000b8   Code   RO         2952    i.app_timer_init    app_timer.o
    0x00019744   0x00000058   Code   RO         2953    i.app_timer_start   app_timer.o
    0x0001979c   0x00000038   Code   RO         2954    i.app_timer_stop    app_timer.o
    0x000197d4   0x0000000a   Code   RO         3222    i.app_uart_close    app_uart_fifo.o
    0x000197de   0x00000002   PAD
    0x000197e0   0x00000030   Code   RO         3223    i.app_uart_flush    app_uart_fifo.o
    0x00019810   0x00000038   Code   RO         3224    i.app_uart_get      app_uart_fifo.o
    0x00019848   0x000000c0   Code   RO         3225    i.app_uart_init     app_uart_fifo.o
    0x00019908   0x0000002c   Code   RO         3226    i.app_uart_put      app_uart_fifo.o
    0x00019934   0x00000050   Code   RO         1326    i.appearance_encode  ble_advdata.o
    0x00019984   0x00000070   Code   RO         2124    i.apply_config      nrf_drv_uart.o
    0x000199f4   0x00000088   Code   RO         1327    i.ble_advdata_set   ble_advdata.o
    0x00019a7c   0x00000174   Code   RO         1435    i.ble_advertising_init  ble_advertising.o
    0x00019bf0   0x00000104   Code   RO         1436    i.ble_advertising_on_ble_evt  ble_advertising.o
    0x00019cf4   0x00000010   Code   RO         1439    i.ble_advertising_peer_address_clear  ble_advertising.o
    0x00019d04   0x000002bc   Code   RO         1441    i.ble_advertising_start  ble_advertising.o
    0x00019fc0   0x00000078   Code   RO         1511    i.ble_conn_params_init  ble_conn_params.o
    0x0001a038   0x0000003e   Code   RO         1512    i.ble_conn_params_on_ble_evt  ble_conn_params.o
    0x0001a076   0x0000006c   Code   RO         1328    i.ble_device_addr_encode  ble_advdata.o
    0x0001a0e2   0x00000002   PAD
    0x0001a0e4   0x00000024   Code   RO            6    i.ble_evt_dispatch  main.o
    0x0001a108   0x00000084   Code   RO         1595    i.ble_nus_init      ble_nus.o
    0x0001a18c   0x00000046   Code   RO         1596    i.ble_nus_on_ble_evt  ble_nus.o
    0x0001a1d2   0x00000002   PAD
    0x0001a1d4   0x000000a4   Code   RO            7    i.ble_stack_init    main.o
    0x0001a278   0x00000198   Code   RO         1168    i.button_event_handler  ofo_key_unlock.o
    0x0001a410   0x0000008c   Code   RO          590    i.buzz_timer_handler  ofo_buzz.o
    0x0001a49c   0x00000020   Code   RO         1775    i.channel_free      nrf_drv_gpiote.o
    0x0001a4bc   0x00000010   Code   RO         1776    i.channel_handler_get  nrf_drv_gpiote.o
    0x0001a4cc   0x00000078   Code   RO         1777    i.channel_port_alloc  nrf_drv_gpiote.o
    0x0001a544   0x0000000c   Code   RO         1778    i.channel_port_get  nrf_drv_gpiote.o
    0x0001a550   0x00000114   Code   RO         2391    i.clear_operation_execute  pstorage.o
    0x0001a664   0x00000028   Code   RO         2392    i.clear_post_processing_run  pstorage.o
    0x0001a68c   0x00000048   Code   RO         2393    i.cmd_process       pstorage.o
    0x0001a6d4   0x00000014   Code   RO         2394    i.cmd_queue_dequeue  pstorage.o
    0x0001a6e8   0x0000003c   Code   RO         2395    i.cmd_queue_element_init  pstorage.o
    0x0001a724   0x00000020   Code   RO         2397    i.cmd_queue_init    pstorage.o
    0x0001a744   0x00000028   Code   RO         2398    i.command_end_procedure_run  pstorage.o
    0x0001a76c   0x0000002c   Code   RO         2399    i.command_queue_element_consume  pstorage.o
    0x0001a798   0x0000008c   Code   RO         2956    i.compare_reg_update  app_timer.o
    0x0001a824   0x0000005c   Code   RO         1329    i.conn_int_check    ble_advdata.o
    0x0001a880   0x00000066   Code   RO         1330    i.conn_int_encode   ble_advdata.o
    0x0001a8e6   0x00000014   Code   RO            8    i.conn_params_error_handler  main.o
    0x0001a8fa   0x00000002   PAD
    0x0001a8fc   0x0000005c   Code   RO            9    i.conn_params_init  main.o
    0x0001a958   0x00000094   Code   RO         1514    i.conn_params_negotiation  ble_conn_params.o
    0x0001a9ec   0x0000005c   Code   RO         2315    i.current_int_priority_get  nrf_drv_wdt.o
    0x0001aa48   0x0000005c   Code   RO         2957    i.current_int_priority_get  app_timer.o
    0x0001aaa4   0x00000084   Code   RO         2400    i.data_page_erase_state_run  pstorage.o
    0x0001ab28   0x00000038   Code   RO         2401    i.data_to_swap_write_state_run  pstorage.o
    0x0001ab60   0x00000064   Code   RO         2958    i.elapsed_ticks_acquire  app_timer.o
    0x0001abc4   0x00000044   Code   RO         2402    i.erase_sub_state_sm_run  pstorage.o
    0x0001ac08   0x0000005c   Code   RO         2959    i.expired_timers_handler  app_timer.o
    0x0001ac64   0x00000014   Code   RO         2837    i.fifo_get          app_fifo.o
    0x0001ac78   0x0000000a   Code   RO         2838    i.fifo_length       app_fifo.o
    0x0001ac82   0x0000000a   Code   RO         3227    i.fifo_length       app_uart_fifo.o
    0x0001ac8c   0x00000012   Code   RO         2839    i.fifo_put          app_fifo.o
    0x0001ac9e   0x0000001a   Code   RO         2010    i.finish_transfer   nrf_drv_spi.o
    0x0001acb8   0x00000036   Code   RO         1331    i.flags_encode      ble_advdata.o
    0x0001acee   0x00000002   PAD
    0x0001acf0   0x00000030   Code   RO         2403    i.flash_api_err_code_process  pstorage.o
    0x0001ad20   0x0000000e   Code   RO          510    i.flash_init        ofo_flash.o
    0x0001ad2e   0x00000002   PAD
    0x0001ad30   0x00000040   Code   RO         2404    i.flash_operation_failure_run  pstorage.o
    0x0001ad70   0x00000030   Code   RO         2405    i.flash_operation_success_run  pstorage.o
    0x0001ada0   0x00000010   Code   RO         2406    i.flash_page_erase  pstorage.o
    0x0001adb0   0x0000005c   Code   RO          511    i.flash_pstorage_cb_handler  ofo_flash.o
    0x0001ae0c   0x00000024   Code   RO          512    i.flash_regeist     ofo_flash.o
    0x0001ae30   0x00000018   Code   RO         2407    i.flash_write       pstorage.o
    0x0001ae48   0x00000010   Code   RO         3190    i.fputc             retarget.o
    0x0001ae58   0x00000088   Code   RO           10    i.gap_params_init   main.o
    0x0001aee0   0x00000070   Code   RO           11    i.gpio_init         main.o
    0x0001af50   0x0000014c   Code   RO         1169    i.gpiote_int_init   ofo_key_unlock.o
    0x0001b09c   0x00000070   Code   RO         2408    i.head_restore_state_run  pstorage.o
    0x0001b10c   0x000000bc   Code   RO         3291    i.intern_softdevice_events_execute  softdevice_handler.o
    0x0001b1c8   0x00000024   Code   RO         2011    i.irq_handler_spi   nrf_drv_spi.o
    0x0001b1ec   0x00000024   Code   RO         1515    i.is_conn_params_ok  ble_conn_params.o
    0x0001b210   0x00000038   Code   RO         1286    i.is_disabled_in_debug_needed  system_nrf51.o
    0x0001b248   0x0000006c   Code   RO         1287    i.is_manual_peripheral_setup_needed  system_nrf51.o
    0x0001b2b4   0x00000058   Code   RO         2409    i.is_page_erase_required  pstorage.o
    0x0001b30c   0x00000050   Code   RO         2410    i.is_tail_data_page_swap_required  pstorage.o
    0x0001b35c   0x00000034   Code   RO         1170    i.key_unlock_init   ofo_key_unlock.o
    0x0001b390   0x00000054   Code   RO         1171    i.key_unlock_timer_handler  ofo_key_unlock.o
    0x0001b3e4   0x0000006a   Code   RO         1332    i.le_role_encode    ble_advdata.o
    0x0001b44e   0x00000002   PAD
    0x0001b450   0x00000028   Code   RO          315    i.led_action_stop   ofo_led.o
    0x0001b478   0x00000094   Code   RO         2960    i.list_deletions_handler  app_timer.o
    0x0001b50c   0x00000110   Code   RO         2961    i.list_insertions_handler  app_timer.o
    0x0001b61c   0x0000008c   Code   RO          711    i.lock_set_init     ofo_lock.o
    0x0001b6a8   0x000000c4   Code   RO          712    i.lock_timer_handler  ofo_lock.o
    0x0001b76c   0x00000064   Code   RO           12    i.main              main.o
    0x0001b7d0   0x00000020   Code   RO         2412    i.main_state_err_busy_process  pstorage.o
    0x0001b7f0   0x00000078   Code   RO         1333    i.manuf_specific_data_encode  ble_advdata.o
    0x0001b868   0x000000c2   Code   RO         1334    i.name_encode       ble_advdata.o
    0x0001b92a   0x00000002   PAD
    0x0001b92c   0x00000050   Code   RO         1682    i.nrf_adc_configure  nrf_adc.o
    0x0001b97c   0x00000028   Code   RO         1684    i.nrf_adc_input_select  nrf_adc.o
    0x0001b9a4   0x0000001c   Code   RO         1717    i.nrf_delay_ms      nrf_delay.o
    0x0001b9c0   0x00000038   Code   RO         1741    i.nrf_drv_common_irq_enable  nrf_drv_common.o
    0x0001b9f8   0x00000060   Code   RO         1780    i.nrf_drv_gpiote_in_event_disable  nrf_drv_gpiote.o
    0x0001ba58   0x000000c8   Code   RO         1781    i.nrf_drv_gpiote_in_event_enable  nrf_drv_gpiote.o
    0x0001bb20   0x000000f4   Code   RO         1782    i.nrf_drv_gpiote_in_init  nrf_drv_gpiote.o
    0x0001bc14   0x00000050   Code   RO         1785    i.nrf_drv_gpiote_init  nrf_drv_gpiote.o
    0x0001bc64   0x00000080   Code   RO         2126    i.nrf_drv_uart_init  nrf_drv_uart.o
    0x0001bce4   0x000000e0   Code   RO         2127    i.nrf_drv_uart_rx   nrf_drv_uart.o
    0x0001bdc4   0x0000001c   Code   RO         2130    i.nrf_drv_uart_rx_enable  nrf_drv_uart.o
    0x0001bde0   0x000000b4   Code   RO         2131    i.nrf_drv_uart_tx   nrf_drv_uart.o
    0x0001be94   0x0000005c   Code   RO         2133    i.nrf_drv_uart_uninit  nrf_drv_uart.o
    0x0001bef0   0x000000a8   Code   RO         2316    i.nrf_drv_wdt_channel_alloc  nrf_drv_wdt.o
    0x0001bf98   0x0000005c   Code   RO         2320    i.nrf_drv_wdt_init  nrf_drv_wdt.o
    0x0001bff4   0x00000026   Code   RO           13    i.nrf_gpio_cfg      main.o
    0x0001c01a   0x00000026   Code   RO         1798    i.nrf_gpio_cfg      nrf_drv_gpiote.o
    0x0001c040   0x00000026   Code   RO         2134    i.nrf_gpio_cfg      nrf_drv_uart.o
    0x0001c066   0x00000018   Code   RO         2135    i.nrf_gpio_cfg_default  nrf_drv_uart.o
    0x0001c07e   0x0000001a   Code   RO           14    i.nrf_gpio_cfg_input  main.o
    0x0001c098   0x0000001a   Code   RO         2136    i.nrf_gpio_cfg_input  nrf_drv_uart.o
    0x0001c0b2   0x00000018   Code   RO           15    i.nrf_gpio_cfg_output  main.o
    0x0001c0ca   0x00000018   Code   RO         2137    i.nrf_gpio_cfg_output  nrf_drv_uart.o
    0x0001c0e2   0x00000046   Code   RO         1800    i.nrf_gpio_cfg_sense_set  nrf_drv_gpiote.o
    0x0001c128   0x00000010   Code   RO          591    i.nrf_gpio_pin_clear  ofo_buzz.o
    0x0001c138   0x00000010   Code   RO          713    i.nrf_gpio_pin_clear  ofo_lock.o
    0x0001c148   0x00000014   Code   RO          714    i.nrf_gpio_pin_read  ofo_lock.o
    0x0001c15c   0x00000010   Code   RO          592    i.nrf_gpio_pin_set  ofo_buzz.o
    0x0001c16c   0x00000010   Code   RO         2018    i.nrf_gpio_pin_set  nrf_drv_spi.o
    0x0001c17c   0x00000010   Code   RO         2138    i.nrf_gpio_pin_set  nrf_drv_uart.o
    0x0001c18c   0x0000000c   Code   RO         1803    i.nrf_gpiote_event_addr_get  nrf_drv_gpiote.o
    0x0001c198   0x00000010   Code   RO         1804    i.nrf_gpiote_event_clear  nrf_drv_gpiote.o
    0x0001c1a8   0x00000016   Code   RO         1805    i.nrf_gpiote_event_is_set  nrf_drv_gpiote.o
    0x0001c1be   0x00000002   PAD
    0x0001c1c0   0x0000000c   Code   RO         1806    i.nrf_gpiote_int_enable  nrf_drv_gpiote.o
    0x0001c1cc   0x00000006   Code   RO         2019    i.nrf_spi_event_clear  nrf_drv_spi.o
    0x0001c1d2   0x0000000a   Code   RO         2022    i.nrf_spi_txd_set   nrf_drv_spi.o
    0x0001c1dc   0x00000014   Code   RO         2139    i.nrf_uart_errorsrc_get_and_clear  nrf_drv_uart.o
    0x0001c1f0   0x00000010   Code   RO         2140    i.nrf_uart_event_check  nrf_drv_uart.o
    0x0001c200   0x00000006   Code   RO         2141    i.nrf_uart_event_clear  nrf_drv_uart.o
    0x0001c206   0x00000012   Code   RO         2142    i.nrf_uart_hwfc_pins_set  nrf_drv_uart.o
    0x0001c218   0x0000000a   Code   RO         2143    i.nrf_uart_int_disable  nrf_drv_uart.o
    0x0001c222   0x0000000a   Code   RO         2144    i.nrf_uart_int_enable  nrf_drv_uart.o
    0x0001c22c   0x00000018   Code   RO         2145    i.nrf_uart_int_enable_check  nrf_drv_uart.o
    0x0001c244   0x00000006   Code   RO         2146    i.nrf_uart_task_trigger  nrf_drv_uart.o
    0x0001c24a   0x00000012   Code   RO         2147    i.nrf_uart_txrx_pins_set  nrf_drv_uart.o
    0x0001c25c   0x0000002c   Code   RO           16    i.nus_data_handler  main.o
    0x0001c288   0x0000001a   Code   RO           17    i.on_adv_evt        main.o
    0x0001c2a2   0x00000002   PAD
    0x0001c2a4   0x00000084   Code   RO           18    i.on_ble_evt        main.o
    0x0001c328   0x00000034   Code   RO           19    i.on_conn_params_evt  main.o
    0x0001c35c   0x00000018   Code   RO         1516    i.on_conn_params_update  ble_conn_params.o
    0x0001c374   0x0000003c   Code   RO         1517    i.on_connect        ble_conn_params.o
    0x0001c3b0   0x00000006   Code   RO         1598    i.on_connect        ble_nus.o
    0x0001c3b6   0x00000002   PAD
    0x0001c3b8   0x00000044   Code   RO         1518    i.on_disconnect     ble_conn_params.o
    0x0001c3fc   0x00000008   Code   RO         1599    i.on_disconnect     ble_nus.o
    0x0001c404   0x0000005c   Code   RO         1519    i.on_write          ble_conn_params.o
    0x0001c460   0x00000054   Code   RO         1600    i.on_write          ble_nus.o
    0x0001c4b4   0x0000001a   Code   RO         1443    i.peer_address_exists  ble_advertising.o
    0x0001c4ce   0x00000002   PAD
    0x0001c4d0   0x0000001c   Code   RO         1808    i.pin_in_use_by_gpiote  nrf_drv_gpiote.o
    0x0001c4ec   0x00000018   Code   RO         1809    i.pin_in_use_by_port  nrf_drv_gpiote.o
    0x0001c504   0x00000020   Code   RO         1810    i.pin_in_use_by_te  nrf_drv_gpiote.o
    0x0001c524   0x00000010   Code   RO         1811    i.pin_in_use_clear  nrf_drv_gpiote.o
    0x0001c534   0x00000078   Code   RO         2148    i.pins_to_default   nrf_drv_uart.o
    0x0001c5ac   0x00000020   Code   RO           20    i.power_manage      main.o
    0x0001c5cc   0x00000030   Code   RO         2413    i.pstorage_access_status_get  pstorage.o
    0x0001c5fc   0x00000028   Code   RO         2416    i.pstorage_flash_page_end  pstorage.o
    0x0001c624   0x0000000a   Code   RO         2417    i.pstorage_flash_page_size  pstorage.o
    0x0001c62e   0x00000002   PAD
    0x0001c630   0x00000088   Code   RO         2418    i.pstorage_init     pstorage.o
    0x0001c6b8   0x00000120   Code   RO         2420    i.pstorage_register  pstorage.o
    0x0001c7d8   0x0000004c   Code   RO         2422    i.pstorage_sys_event_handler  pstorage.o
    0x0001c824   0x0000000c   Code   RO         2962    i.rtc1_compare0_set  app_timer.o
    0x0001c830   0x0000000c   Code   RO         2963    i.rtc1_counter_get  app_timer.o
    0x0001c83c   0x00000018   Code   RO         2964    i.rtc1_init         app_timer.o
    0x0001c854   0x0000003c   Code   RO         2965    i.rtc1_start        app_timer.o
    0x0001c890   0x00000058   Code   RO         2966    i.rtc1_stop         app_timer.o
    0x0001c8e8   0x00000038   Code   RO         2149    i.rx_byte           nrf_drv_uart.o
    0x0001c920   0x00000124   Code   RO         1601    i.rx_char_add       ble_nus.o
    0x0001ca44   0x0000002c   Code   RO         2150    i.rx_done_event     nrf_drv_uart.o
    0x0001ca70   0x00000024   Code   RO         2151    i.rx_enable         nrf_drv_uart.o
    0x0001ca94   0x00000036   Code   RO         1335    i.sec_mgr_oob_flags_encode  ble_advdata.o
    0x0001caca   0x00000096   Code   RO         1336    i.service_data_encode  ble_advdata.o
    0x0001cb60   0x00000038   Code   RO           21    i.services_init     main.o
    0x0001cb98   0x00000030   Code   RO          316    i.single_led_control  ofo_led.o
    0x0001cbc8   0x00000020   Code   RO           22    i.sleep_mode_enter  main.o
    0x0001cbe8   0x00000014   Code   RO         2424    i.sm_state_change   pstorage.o
    0x0001cbfc   0x00000012   Code   RO         3292    i.softdevice_assertion_handler  softdevice_handler.o
    0x0001cc0e   0x00000002   PAD
    0x0001cc10   0x00000018   Code   RO         3293    i.softdevice_ble_evt_handler_set  softdevice_handler.o
    0x0001cc28   0x00000068   Code   RO         3294    i.softdevice_handler_init  softdevice_handler.o
    0x0001cc90   0x00000018   Code   RO         3296    i.softdevice_sys_evt_handler_set  softdevice_handler.o
    0x0001cca8   0x00000010   Code   RO         1337    i.srdata_check      ble_advdata.o
    0x0001ccb8   0x00000010   Code   RO         2425    i.state_data_erase_entry_run  pstorage.o
    0x0001ccc8   0x00000098   Code   RO         2426    i.state_data_erase_swap_entry_run  pstorage.o
    0x0001cd60   0x0000003c   Code   RO         2427    i.state_entry_action_run  pstorage.o
    0x0001cd9c   0x00000010   Code   RO         2428    i.state_erase_data_page_entry_run  pstorage.o
    0x0001cdac   0x0000001c   Code   RO         2429    i.state_idle_entry_run  pstorage.o
    0x0001cdc8   0x00000034   Code   RO         2430    i.state_restore_head_entry_run  pstorage.o
    0x0001cdfc   0x00000054   Code   RO         2431    i.state_restore_tail_entry_run  pstorage.o
    0x0001ce50   0x00000008   Code   RO         2432    i.state_store_entry_run  pstorage.o
    0x0001ce58   0x00000026   Code   RO         2433    i.state_swap_erase_entry_run  pstorage.o
    0x0001ce7e   0x00000002   PAD
    0x0001ce80   0x00000034   Code   RO         2434    i.state_write_data_swap_entry_run  pstorage.o
    0x0001ceb4   0x00000064   Code   RO         2435    i.store_cmd_flash_write_execute  pstorage.o
    0x0001cf18   0x0000000a   Code   RO         2436    i.store_operation_execute  pstorage.o
    0x0001cf22   0x00000002   PAD
    0x0001cf24   0x0000004c   Code   RO         2437    i.store_sub_state_sm_run  pstorage.o
    0x0001cf70   0x00000020   Code   RO         2438    i.swap_erase_state_run  pstorage.o
    0x0001cf90   0x00000008   Code   RO         2439    i.swap_sub_sm_exit_action_run  pstorage.o
    0x0001cf98   0x00000018   Code   RO         2440    i.swap_sub_state_entry_action_run  pstorage.o
    0x0001cfb0   0x00000020   Code   RO         2441    i.swap_sub_state_err_busy_process  pstorage.o
    0x0001cfd0   0x00000018   Code   RO         2442    i.swap_sub_state_sm_run  pstorage.o
    0x0001cfe8   0x00000014   Code   RO         2443    i.swap_sub_state_state_change  pstorage.o
    0x0001cffc   0x00000088   Code   RO          715    i.switch_event_handler  ofo_lock.o
    0x0001d084   0x0000000c   Code   RO           23    i.sys_evt_dispatch  main.o
    0x0001d090   0x00000020   Code   RO         2444    i.tail_restore_state_run  pstorage.o
    0x0001d0b0   0x00000058   Code   RO         2445    i.tail_word_size_calculate  pstorage.o
    0x0001d108   0x0000000a   Code   RO         2967    i.ticks_diff_get    app_timer.o
    0x0001d112   0x00000002   PAD
    0x0001d114   0x00000040   Code   RO         2968    i.timeout_handler_exec  app_timer.o
    0x0001d154   0x00000034   Code   RO           24    i.timer_init        main.o
    0x0001d188   0x00000058   Code   RO         2969    i.timer_list_handler  app_timer.o
    0x0001d1e0   0x0000000a   Code   RO         2970    i.timer_list_handler_sched  app_timer.o
    0x0001d1ea   0x00000002   PAD
    0x0001d1ec   0x0000006c   Code   RO         2971    i.timer_list_insert  app_timer.o
    0x0001d258   0x00000070   Code   RO         2972    i.timer_list_remove  app_timer.o
    0x0001d2c8   0x00000058   Code   RO         2973    i.timer_start_op_schedule  app_timer.o
    0x0001d320   0x00000040   Code   RO         2975    i.timer_stop_op_schedule  app_timer.o
    0x0001d360   0x00000094   Code   RO         2976    i.timer_timeouts_check  app_timer.o
    0x0001d3f4   0x0000000a   Code   RO         2977    i.timer_timeouts_check_sched  app_timer.o
    0x0001d3fe   0x00000046   Code   RO         1338    i.tk_value_encode   ble_advdata.o
    0x0001d444   0x0000006e   Code   RO         2023    i.transfer_byte     nrf_drv_spi.o
    0x0001d4b2   0x00000002   PAD
    0x0001d4b4   0x00000038   Code   RO         2152    i.tx_byte           nrf_drv_uart.o
    0x0001d4ec   0x000000de   Code   RO         1602    i.tx_char_add       ble_nus.o
    0x0001d5ca   0x00000002   PAD
    0x0001d5cc   0x0000002c   Code   RO         2153    i.tx_done_event     nrf_drv_uart.o
    0x0001d5f8   0x00000036   Code   RO         1339    i.tx_power_level_encode  ble_advdata.o
    0x0001d62e   0x00000002   PAD
    0x0001d630   0x000000b0   Code   RO          467    i.uart_event_handle  ofo_uart.o
    0x0001d6e0   0x000000c0   Code   RO         3228    i.uart_event_handler  app_uart_fifo.o
    0x0001d7a0   0x00000078   Code   RO          468    i.uart_init         ofo_uart.o
    0x0001d818   0x00000012   Code   RO         1340    i.uint16_encode     ble_advdata.o
    0x0001d82a   0x00000008   Code   RO         2446    i.update_operation_execute  pstorage.o
    0x0001d832   0x00000002   PAD
    0x0001d834   0x0000009c   Code   RO         1520    i.update_timeout_handler  ble_conn_params.o
    0x0001d8d0   0x00000022   Code   RO         2978    i.user_id_get       app_timer.o
    0x0001d8f2   0x0000002e   Code   RO         2979    i.user_op_alloc     app_timer.o
    0x0001d920   0x00000004   Code   RO         2980    i.user_op_enque     app_timer.o
    0x0001d924   0x00000044   Code   RO         1341    i.uuid_list_encode  ble_advdata.o
    0x0001d968   0x000000d8   Code   RO         1342    i.uuid_list_sized_encode  ble_advdata.o
    0x0001da40   0x00000002   Code   RO          422    i.wdt_event_handler  ofo_wdt.o
    0x0001da42   0x00000002   PAD
    0x0001da44   0x00000060   Code   RO          423    i.wdt_init          ofo_wdt.o
    0x0001daa4   0x00000016   Code   RO         1444    i.whitelist_has_entries  ble_advertising.o
    0x0001daba   0x00000000   Code   RO         3436    x$fpl$usenofp       fz_ps.l(usenofp.o)
    0x0001daba   0x00000002   PAD
    0x0001dabc   0x0000000f   Data   RO          318    .constdata          ofo_led.o
    0x0001dacb   0x00000001   PAD
    0x0001dacc   0x00000008   Data   RO          381    .constdata          ofo_adc.o
    0x0001dad4   0x0000000c   Data   RO          471    .constdata          ofo_uart.o
    0x0001dae0   0x00000010   Data   RO          594    .constdata          ofo_buzz.o
    0x0001daf0   0x0000000c   Data   RO          717    .constdata          ofo_lock.o
    0x0001dafc   0x00000018   Data   RO         1173    .constdata          ofo_key_unlock.o
    0x0001db14   0x00000004   Data   RO         1522    .constdata          ble_conn_params.o
    0x0001db18   0x00000010   Data   RO         1603    .constdata          ble_nus.o
    0x0001db28   0x00000020   Data   RO         2155    .constdata          nrf_drv_uart.o
    0x0001db48   0x0000000c   Data   RO         2322    .constdata          nrf_drv_wdt.o
    0x0001db54   0x00000028   Data   RO         2448    .constdata          pstorage.o
    0x0001db7c   0x00000020   Data   RO         3230    .constdata          app_uart_fifo.o
    0x0001db9c   0x00000028   Data   RO         3360    .constdata          c_p.l(_printf_hex_int.o)
    0x0001dbc4   0x00000020   Data   RO         3604    Region$$Table       anon$$obj.o


    Execution Region RW_IRAM1 (Base: 0x20002000, Size: 0x00001978, Max: 0x00006000, ABSOLUTE)

    Base Addr    Size         Type   Attr      Idx    E Section Name        Object

    0x20002000   0x0000000c   Data   RW           26    .data               main.o
    0x2000200c   0x00000008   Data   RW          319    .data               ofo_led.o
    0x20002014   0x00000004   Data   RW          382    .data               ofo_adc.o
    0x20002018   0x00000001   Data   RW          424    .data               ofo_wdt.o
    0x20002019   0x00000002   Data   RW          472    .data               ofo_uart.o
    0x2000201b   0x00000001   PAD
    0x2000201c   0x00000014   Data   RW          517    .data               ofo_flash.o
    0x20002030   0x00000004   Data   RW          595    .data               ofo_buzz.o
    0x20002034   0x00000008   Data   RW          718    .data               ofo_lock.o
    0x2000203c   0x0000001c   Data   RW         1174    .data               ofo_key_unlock.o
    0x20002058   0x00000003   Data   RW         1225    .data               ofo_factory_test.o
    0x2000205b   0x00000001   PAD
    0x2000205c   0x00000004   Data   RW         1288    .data               system_nrf51.o
    0x20002060   0x00000020   Data   RW         1446    .data               ble_advertising.o
    0x20002080   0x00000015   Data   RW         1523    .data               ble_conn_params.o
    0x20002095   0x00000003   PAD
    0x20002098   0x0000000c   Data   RW         2323    .data               nrf_drv_wdt.o
    0x200020a4   0x00000028   Data   RW         2449    .data               pstorage.o
    0x200020cc   0x00000022   Data   RW         2981    .data               app_timer.o
    0x200020ee   0x00000002   PAD
    0x200020f0   0x00000008   Data   RW         3191    .data               retarget.o
    0x200020f8   0x00000007   Data   RW         3231    .data               app_uart_fifo.o
    0x200020ff   0x00000001   PAD
    0x20002100   0x00000018   Data   RW         3297    .data               softdevice_handler.o
    0x20002118   0x000002bc   Zero   RW           25    .bss                main.o
    0x200023d4   0x00000020   Zero   RW          317    .bss                ofo_led.o
    0x200023f4   0x00000214   Zero   RW          470    .bss                ofo_uart.o
    0x20002608   0x00000020   Zero   RW          593    .bss                ofo_buzz.o
    0x20002628   0x00000020   Zero   RW          716    .bss                ofo_lock.o
    0x20002648   0x00000020   Zero   RW         1172    .bss                ofo_key_unlock.o
    0x20002668   0x00000103   Zero   RW         1445    .bss                ble_advertising.o
    0x2000276b   0x00000001   PAD
    0x2000276c   0x0000003c   Zero   RW         1521    .bss                ble_conn_params.o
    0x200027a8   0x00000048   Zero   RW         1812    .bss                nrf_drv_gpiote.o
    0x200027f0   0x00000018   Zero   RW         2024    .bss                nrf_drv_spi.o
    0x20002808   0x00000018   Zero   RW         2154    .bss                nrf_drv_uart.o
    0x20002820   0x000000d8   Zero   RW         2447    .bss                pstorage.o
    0x200028f8   0x00000020   Zero   RW         3229    .bss                app_uart_fifo.o
    0x20002918   0x00000060   Zero   RW         3478    .bss                c_p.l(libspace.o)
    0x20002978   0x00000800   Zero   RW         1276    HEAP                arm_startup_nrf51.o
    0x20003178   0x00000800   Zero   RW         1275    STACK               arm_startup_nrf51.o


==============================================================================

Image component sizes


      Code (inc. data)   RO Data    RW Data    ZI Data      Debug   Object Name

        56          8          0          0          0       7368   app_error.o
       166          0          0          0          0       4503   app_fifo.o
      2476        282          0         34          0      29219   app_timer.o
       552         74         32          7         32       9628   app_uart_fifo.o
        84         36        192          0       4096        632   arm_startup_nrf51.o
      2102          4          0          0          0      19416   ble_advdata.o
      1396        130          0         32        259       5896   ble_advertising.o
       766        126          4         21         60      15024   ble_conn_params.o
       814          4         16          0          0       5060   ble_nus.o
      1342         96          0         12        700      90340   main.o
       120         10          0          0          0       3292   nrf_adc.o
        58          4          0          0          0       1259   nrf_delay.o
       176         18          0          0          0       8556   nrf_drv_common.o
      1466        114          0          0         72      20454   nrf_drv_gpiote.o
       224         14          0          0         24      18295   nrf_drv_spi.o
      1688        116         32          0         24      22994   nrf_drv_uart.o
       412         48         12         12          0      14368   nrf_drv_wdt.o
       300         48          8          4          0      10815   ofo_adc.o
       420         82         16          4         32       4989   ofo_buzz.o
         0          0          0          3          0        289   ofo_factory_test.o
       142         24          0         20          0       2496   ofo_flash.o
       876         74         24         28         32       8968   ofo_key_unlock.o
       420         76         15          8         32       7152   ofo_led.o
       572        108         12          8         32      11364   ofo_lock.o
       296         28         12          2        532       2021   ofo_uart.o
        98         12          0          1          0       5630   ofo_wdt.o
      3014        382         40         40        216      30982   pstorage.o
        16          0          0          8          0       2378   retarget.o
       414         58          0         24          0       5088   softdevice_handler.o
       220         26          0          4          0       1655   system_nrf51.o

    ----------------------------------------------------------------------
     20738       2002        448        280       6144     370131   Object Totals
         0          0         32          0          0          0   (incl. Generated)
        52          0          1          8          1          0   (incl. Padding)

    ----------------------------------------------------------------------

      Code (inc. data)   RO Data    RW Data    ZI Data      Debug   Library Member Name

         8          0          0          0          0         68   __main.o
       108          0          0          0          0         76   __printf.o
         0          0          0          0          0          0   __rtentry.o
        12          0          0          0          0          0   __rtentry2.o
         6          0          0          0          0          0   __rtentry4.o
        60          8          0          0          0          0   __scatter.o
        26          0          0          0          0          0   __scatter_copy.o
        28          0          0          0          0          0   __scatter_zi.o
        48          6          0          0          0         88   _printf_char_common.o
        40          6          0          0          0         72   _printf_char_file.o
        88          4         40          0          0         72   _printf_hex_int.o
       176          0          0          0          0         84   _printf_intcommon.o
         2          0          0          0          0          0   _printf_percent.o
         4          0          0          0          0          0   _printf_percent_end.o
        10          0          0          0          0          0   _printf_x.o
       346          0          0          0          0         92   aeabi_sdiv.o
        12          0          0          0          0         64   exit.o
         8          0          0          0          0         60   ferror.o
         6          0          0          0          0        136   heapauxi.o
         0          0          0          0          0          0   indicate_semi.o
         2          0          0          0          0          0   libinit.o
         2          0          0          0          0          0   libinit2.o
         2          0          0          0          0          0   libshutdown.o
         2          0          0          0          0          0   libshutdown2.o
         8          4          0          0         96         68   libspace.o
        28          6          0          0          0         84   noretval__2printf.o
        64          0          0          0          0        108   rt_memclr.o
       186          0          0          0          0        144   rt_memcpy.o
         2          0          0          0          0          0   rtexit.o
        10          0          0          0          0          0   rtexit2.o
       136          4          0          0          0         72   strcmp.o
        12          4          0          0          0         60   sys_exit.o
        62          0          0          0          0         80   sys_stackheap_outer.o
         2          0          0          0          0         68   use_no_semi.o
       108         10          0          0          0         72   dfixi.o
        88          0          0          0          0         92   dflti.o
       584         26          0          0          0         84   dmul.o
         0          0          0          0          0          0   usenofp.o

    ----------------------------------------------------------------------
      2298         78         40          0         96       1744   Library Totals
        12          0          0          0          0          0   (incl. Padding)

    ----------------------------------------------------------------------

      Code (inc. data)   RO Data    RW Data    ZI Data      Debug   Library Name

      1506         42         40          0         96       1496   c_p.l
       780         36          0          0          0        248   fz_ps.l

    ----------------------------------------------------------------------
      2298         78         40          0         96       1744   Library Totals

    ----------------------------------------------------------------------

==============================================================================


      Code (inc. data)   RO Data    RW Data    ZI Data      Debug   

     23036       2080        488        280       6240     359299   Grand Totals
     23036       2080        488        280       6240     359299   ELF Image Totals
     23036       2080        488        280          0          0   ROM Totals

==============================================================================

    Total RO  Size (Code + RO Data)                23524 (  22.97kB)
    Total RW  Size (RW Data + ZI Data)              6520 (   6.37kB)
    Total ROM Size (Code + RO Data + RW Data)      23804 (  23.25kB)

==============================================================================

